
rv64ui-p-slli:     file format elf64-littleriscv


Disassembly of section .text:

0000000000000100 <tvec_user>:
 100:	00000013          	nop
 104:	00000013          	nop
 108:	00000013          	nop
 10c:	00000013          	nop
 110:	00000013          	nop
 114:	00000013          	nop
 118:	00000013          	nop
 11c:	00000013          	nop
 120:	00000013          	nop
 124:	00000013          	nop
 128:	00000013          	nop
 12c:	00000013          	nop
 130:	00000013          	nop
 134:	00000013          	nop
 138:	00000013          	nop
 13c:	00000013          	nop

0000000000000140 <tvec_supervisor>:
 140:	00000013          	nop
 144:	00000013          	nop
 148:	00000013          	nop
 14c:	00000013          	nop
 150:	00000013          	nop
 154:	00000013          	nop
 158:	00000013          	nop
 15c:	00000013          	nop
 160:	00000013          	nop
 164:	00000013          	nop
 168:	00000013          	nop
 16c:	00000013          	nop
 170:	00000013          	nop
 174:	00000013          	nop
 178:	00000013          	nop
 17c:	00000013          	nop

0000000000000180 <tvec_hypervisor>:
 180:	00000013          	nop
 184:	00000013          	nop
 188:	00000013          	nop
 18c:	00000013          	nop
 190:	00000013          	nop
 194:	00000013          	nop
 198:	00000013          	nop
 19c:	00000013          	nop
 1a0:	00000013          	nop
 1a4:	00000013          	nop
 1a8:	00000013          	nop
 1ac:	00000013          	nop
 1b0:	00000013          	nop
 1b4:	00000013          	nop
 1b8:	00000013          	nop
 1bc:	00000013          	nop

00000000000001c0 <tvec_machine>:
 1c0:	00000013          	nop
 1c4:	00000013          	nop
 1c8:	00000013          	nop
 1cc:	00000013          	nop
 1d0:	00000013          	nop
 1d4:	00000013          	nop
 1d8:	00000013          	nop
 1dc:	00000013          	nop
 1e0:	00000013          	nop
 1e4:	00000013          	nop
 1e8:	00000013          	nop
 1ec:	00000013          	nop
 1f0:	00000013          	nop
 1f4:	00000013          	nop
 1f8:	00000013          	nop
 1fc:	00000013          	nop

0000000000000200 <_start>:
 200:	00100093          	li	ra,1
 204:	00009193          	slli	gp,ra,0x0
 208:	00100e93          	li	t4,1
 20c:	00200e13          	li	t3,2
 210:	29d19c63          	bne	gp,t4,4a8 <fail>

0000000000000214 <test_3>:
 214:	00100093          	li	ra,1
 218:	00109193          	slli	gp,ra,0x1
 21c:	00200e93          	li	t4,2
 220:	00300e13          	li	t3,3
 224:	29d19263          	bne	gp,t4,4a8 <fail>

0000000000000228 <test_4>:
 228:	00100093          	li	ra,1
 22c:	00709193          	slli	gp,ra,0x7
 230:	08000e93          	li	t4,128
 234:	00400e13          	li	t3,4
 238:	27d19863          	bne	gp,t4,4a8 <fail>

000000000000023c <test_5>:
 23c:	00100093          	li	ra,1
 240:	00e09193          	slli	gp,ra,0xe
 244:	00004eb7          	lui	t4,0x4
 248:	00500e13          	li	t3,5
 24c:	25d19e63          	bne	gp,t4,4a8 <fail>

0000000000000250 <test_6>:
 250:	00100093          	li	ra,1
 254:	01f09193          	slli	gp,ra,0x1f
 258:	00100e9b          	addiw	t4,zero,1
 25c:	01fe9e93          	slli	t4,t4,0x1f
 260:	00600e13          	li	t3,6
 264:	25d19263          	bne	gp,t4,4a8 <fail>

0000000000000268 <test_7>:
 268:	fff00093          	li	ra,-1
 26c:	00009193          	slli	gp,ra,0x0
 270:	fff00e93          	li	t4,-1
 274:	00700e13          	li	t3,7
 278:	23d19863          	bne	gp,t4,4a8 <fail>

000000000000027c <test_8>:
 27c:	fff00093          	li	ra,-1
 280:	00109193          	slli	gp,ra,0x1
 284:	ffe00e93          	li	t4,-2
 288:	00800e13          	li	t3,8
 28c:	21d19e63          	bne	gp,t4,4a8 <fail>

0000000000000290 <test_9>:
 290:	fff00093          	li	ra,-1
 294:	00709193          	slli	gp,ra,0x7
 298:	f8000e93          	li	t4,-128
 29c:	00900e13          	li	t3,9
 2a0:	21d19463          	bne	gp,t4,4a8 <fail>

00000000000002a4 <test_10>:
 2a4:	fff00093          	li	ra,-1
 2a8:	00e09193          	slli	gp,ra,0xe
 2ac:	ffffceb7          	lui	t4,0xffffc
 2b0:	00a00e13          	li	t3,10
 2b4:	1fd19a63          	bne	gp,t4,4a8 <fail>

00000000000002b8 <test_11>:
 2b8:	fff00093          	li	ra,-1
 2bc:	01f09193          	slli	gp,ra,0x1f
 2c0:	80000eb7          	lui	t4,0x80000
 2c4:	00b00e13          	li	t3,11
 2c8:	1fd19063          	bne	gp,t4,4a8 <fail>

00000000000002cc <test_12>:
 2cc:	212120b7          	lui	ra,0x21212
 2d0:	1210809b          	addiw	ra,ra,289
 2d4:	00009193          	slli	gp,ra,0x0
 2d8:	21212eb7          	lui	t4,0x21212
 2dc:	121e8e9b          	addiw	t4,t4,289
 2e0:	00c00e13          	li	t3,12
 2e4:	1dd19263          	bne	gp,t4,4a8 <fail>

00000000000002e8 <test_13>:
 2e8:	212120b7          	lui	ra,0x21212
 2ec:	1210809b          	addiw	ra,ra,289
 2f0:	00109193          	slli	gp,ra,0x1
 2f4:	42424eb7          	lui	t4,0x42424
 2f8:	242e8e9b          	addiw	t4,t4,578
 2fc:	00d00e13          	li	t3,13
 300:	1bd19463          	bne	gp,t4,4a8 <fail>

0000000000000304 <test_14>:
 304:	212120b7          	lui	ra,0x21212
 308:	1210809b          	addiw	ra,ra,289
 30c:	00709193          	slli	gp,ra,0x7
 310:	01091eb7          	lui	t4,0x1091
 314:	909e8e9b          	addiw	t4,t4,-1783
 318:	00ce9e93          	slli	t4,t4,0xc
 31c:	080e8e93          	addi	t4,t4,128 # 1091080 <begin_signature+0x1090080>
 320:	00e00e13          	li	t3,14
 324:	19d19263          	bne	gp,t4,4a8 <fail>

0000000000000328 <test_15>:
 328:	212120b7          	lui	ra,0x21212
 32c:	1210809b          	addiw	ra,ra,289
 330:	00e09193          	slli	gp,ra,0xe
 334:	21212eb7          	lui	t4,0x21212
 338:	121e8e9b          	addiw	t4,t4,289
 33c:	00ee9e93          	slli	t4,t4,0xe
 340:	00f00e13          	li	t3,15
 344:	17d19263          	bne	gp,t4,4a8 <fail>

0000000000000348 <test_16>:
 348:	212120b7          	lui	ra,0x21212
 34c:	1210809b          	addiw	ra,ra,289
 350:	01f09193          	slli	gp,ra,0x1f
 354:	21212eb7          	lui	t4,0x21212
 358:	121e8e9b          	addiw	t4,t4,289
 35c:	01fe9e93          	slli	t4,t4,0x1f
 360:	01000e13          	li	t3,16
 364:	15d19263          	bne	gp,t4,4a8 <fail>

0000000000000368 <test_17>:
 368:	00100093          	li	ra,1
 36c:	00709093          	slli	ra,ra,0x7
 370:	08000e93          	li	t4,128
 374:	01100e13          	li	t3,17
 378:	13d09863          	bne	ra,t4,4a8 <fail>

000000000000037c <test_18>:
 37c:	00000213          	li	tp,0
 380:	00100093          	li	ra,1
 384:	00709193          	slli	gp,ra,0x7
 388:	00018313          	mv	t1,gp
 38c:	00120213          	addi	tp,tp,1 # 1 <tvec_user-0xff>
 390:	00200293          	li	t0,2
 394:	fe5216e3          	bne	tp,t0,380 <test_18+0x4>
 398:	08000e93          	li	t4,128
 39c:	01200e13          	li	t3,18
 3a0:	11d31463          	bne	t1,t4,4a8 <fail>

00000000000003a4 <test_19>:
 3a4:	00000213          	li	tp,0
 3a8:	00100093          	li	ra,1
 3ac:	00e09193          	slli	gp,ra,0xe
 3b0:	00000013          	nop
 3b4:	00018313          	mv	t1,gp
 3b8:	00120213          	addi	tp,tp,1 # 1 <tvec_user-0xff>
 3bc:	00200293          	li	t0,2
 3c0:	fe5214e3          	bne	tp,t0,3a8 <test_19+0x4>
 3c4:	00004eb7          	lui	t4,0x4
 3c8:	01300e13          	li	t3,19
 3cc:	0dd31e63          	bne	t1,t4,4a8 <fail>

00000000000003d0 <test_20>:
 3d0:	00000213          	li	tp,0
 3d4:	00100093          	li	ra,1
 3d8:	01f09193          	slli	gp,ra,0x1f
 3dc:	00000013          	nop
 3e0:	00000013          	nop
 3e4:	00018313          	mv	t1,gp
 3e8:	00120213          	addi	tp,tp,1 # 1 <tvec_user-0xff>
 3ec:	00200293          	li	t0,2
 3f0:	fe5212e3          	bne	tp,t0,3d4 <test_20+0x4>
 3f4:	00100e9b          	addiw	t4,zero,1
 3f8:	01fe9e93          	slli	t4,t4,0x1f
 3fc:	01400e13          	li	t3,20
 400:	0bd31463          	bne	t1,t4,4a8 <fail>

0000000000000404 <test_21>:
 404:	00000213          	li	tp,0
 408:	00100093          	li	ra,1
 40c:	00709193          	slli	gp,ra,0x7
 410:	00120213          	addi	tp,tp,1 # 1 <tvec_user-0xff>
 414:	00200293          	li	t0,2
 418:	fe5218e3          	bne	tp,t0,408 <test_21+0x4>
 41c:	08000e93          	li	t4,128
 420:	01500e13          	li	t3,21
 424:	09d19263          	bne	gp,t4,4a8 <fail>

0000000000000428 <test_22>:
 428:	00000213          	li	tp,0
 42c:	00100093          	li	ra,1
 430:	00000013          	nop
 434:	00e09193          	slli	gp,ra,0xe
 438:	00120213          	addi	tp,tp,1 # 1 <tvec_user-0xff>
 43c:	00200293          	li	t0,2
 440:	fe5216e3          	bne	tp,t0,42c <test_22+0x4>
 444:	00004eb7          	lui	t4,0x4
 448:	01600e13          	li	t3,22
 44c:	05d19e63          	bne	gp,t4,4a8 <fail>

0000000000000450 <test_23>:
 450:	00000213          	li	tp,0
 454:	00100093          	li	ra,1
 458:	00000013          	nop
 45c:	00000013          	nop
 460:	01f09193          	slli	gp,ra,0x1f
 464:	00120213          	addi	tp,tp,1 # 1 <tvec_user-0xff>
 468:	00200293          	li	t0,2
 46c:	fe5214e3          	bne	tp,t0,454 <test_23+0x4>
 470:	00100e9b          	addiw	t4,zero,1
 474:	01fe9e93          	slli	t4,t4,0x1f
 478:	01700e13          	li	t3,23
 47c:	03d19663          	bne	gp,t4,4a8 <fail>

0000000000000480 <test_24>:
 480:	02001093          	slli	ra,zero,0x20
 484:	00000e93          	li	t4,0
 488:	01800e13          	li	t3,24
 48c:	01d09e63          	bne	ra,t4,4a8 <fail>

0000000000000490 <test_25>:
 490:	02100093          	li	ra,33
 494:	03209013          	slli	zero,ra,0x32
 498:	00000e93          	li	t4,0
 49c:	01900e13          	li	t3,25
 4a0:	01d01463          	bne	zero,t4,4a8 <fail>
 4a4:	01c01c63          	bne	zero,t3,4bc <pass>

00000000000004a8 <fail>:
 4a8:	0ff0000f          	fence
 4ac:	000e0063          	beqz	t3,4ac <fail+0x4>
 4b0:	001e1e13          	slli	t3,t3,0x1
 4b4:	001e6e13          	ori	t3,t3,1
 4b8:	780e1073          	csrw	mtohost,t3

00000000000004bc <pass>:
 4bc:	0ff0000f          	fence
 4c0:	00100e13          	li	t3,1
 4c4:	780e1073          	csrw	mtohost,t3

00000000000004c8 <ecall>:
 4c8:	00000073          	ecall
 4cc:	ffdff06f          	j	4c8 <ecall>
