
rv64ui-p-bgeu:     file format elf64-littleriscv


Disassembly of section .text:

0000000000000100 <tvec_user>:
 100:	00000013          	nop
 104:	00000013          	nop
 108:	00000013          	nop
 10c:	00000013          	nop
 110:	00000013          	nop
 114:	00000013          	nop
 118:	00000013          	nop
 11c:	00000013          	nop
 120:	00000013          	nop
 124:	00000013          	nop
 128:	00000013          	nop
 12c:	00000013          	nop
 130:	00000013          	nop
 134:	00000013          	nop
 138:	00000013          	nop
 13c:	00000013          	nop

0000000000000140 <tvec_supervisor>:
 140:	00000013          	nop
 144:	00000013          	nop
 148:	00000013          	nop
 14c:	00000013          	nop
 150:	00000013          	nop
 154:	00000013          	nop
 158:	00000013          	nop
 15c:	00000013          	nop
 160:	00000013          	nop
 164:	00000013          	nop
 168:	00000013          	nop
 16c:	00000013          	nop
 170:	00000013          	nop
 174:	00000013          	nop
 178:	00000013          	nop
 17c:	00000013          	nop

0000000000000180 <tvec_hypervisor>:
 180:	00000013          	nop
 184:	00000013          	nop
 188:	00000013          	nop
 18c:	00000013          	nop
 190:	00000013          	nop
 194:	00000013          	nop
 198:	00000013          	nop
 19c:	00000013          	nop
 1a0:	00000013          	nop
 1a4:	00000013          	nop
 1a8:	00000013          	nop
 1ac:	00000013          	nop
 1b0:	00000013          	nop
 1b4:	00000013          	nop
 1b8:	00000013          	nop
 1bc:	00000013          	nop

00000000000001c0 <tvec_machine>:
 1c0:	00000013          	nop
 1c4:	00000013          	nop
 1c8:	00000013          	nop
 1cc:	00000013          	nop
 1d0:	00000013          	nop
 1d4:	00000013          	nop
 1d8:	00000013          	nop
 1dc:	00000013          	nop
 1e0:	00000013          	nop
 1e4:	00000013          	nop
 1e8:	00000013          	nop
 1ec:	00000013          	nop
 1f0:	00000013          	nop
 1f4:	00000013          	nop
 1f8:	00000013          	nop
 1fc:	00000013          	nop

0000000000000200 <_start>:
 200:	00200e13          	li	t3,2
 204:	00000093          	li	ra,0
 208:	00000113          	li	sp,0
 20c:	0020f663          	bleu	sp,ra,218 <_start+0x18>
 210:	3fc01463          	bne	zero,t3,5f8 <fail>
 214:	01c01663          	bne	zero,t3,220 <test_3>
 218:	fe20fee3          	bleu	sp,ra,214 <_start+0x14>
 21c:	3dc01e63          	bne	zero,t3,5f8 <fail>

0000000000000220 <test_3>:
 220:	00300e13          	li	t3,3
 224:	00100093          	li	ra,1
 228:	00100113          	li	sp,1
 22c:	0020f663          	bleu	sp,ra,238 <test_3+0x18>
 230:	3dc01463          	bne	zero,t3,5f8 <fail>
 234:	01c01663          	bne	zero,t3,240 <test_4>
 238:	fe20fee3          	bleu	sp,ra,234 <test_3+0x14>
 23c:	3bc01e63          	bne	zero,t3,5f8 <fail>

0000000000000240 <test_4>:
 240:	00400e13          	li	t3,4
 244:	0010009b          	addiw	ra,zero,1
 248:	02009093          	slli	ra,ra,0x20
 24c:	fff08093          	addi	ra,ra,-1
 250:	0010011b          	addiw	sp,zero,1
 254:	02011113          	slli	sp,sp,0x20
 258:	fff10113          	addi	sp,sp,-1
 25c:	0020f663          	bleu	sp,ra,268 <test_4+0x28>
 260:	39c01c63          	bne	zero,t3,5f8 <fail>
 264:	01c01663          	bne	zero,t3,270 <test_5>
 268:	fe20fee3          	bleu	sp,ra,264 <test_4+0x24>
 26c:	39c01663          	bne	zero,t3,5f8 <fail>

0000000000000270 <test_5>:
 270:	00500e13          	li	t3,5
 274:	00100093          	li	ra,1
 278:	00000113          	li	sp,0
 27c:	0020f663          	bleu	sp,ra,288 <test_5+0x18>
 280:	37c01c63          	bne	zero,t3,5f8 <fail>
 284:	01c01663          	bne	zero,t3,290 <test_6>
 288:	fe20fee3          	bleu	sp,ra,284 <test_5+0x14>
 28c:	37c01663          	bne	zero,t3,5f8 <fail>

0000000000000290 <test_6>:
 290:	00600e13          	li	t3,6
 294:	0010009b          	addiw	ra,zero,1
 298:	02009093          	slli	ra,ra,0x20
 29c:	fff08093          	addi	ra,ra,-1
 2a0:	0010011b          	addiw	sp,zero,1
 2a4:	02011113          	slli	sp,sp,0x20
 2a8:	ffe10113          	addi	sp,sp,-2
 2ac:	0020f663          	bleu	sp,ra,2b8 <test_6+0x28>
 2b0:	35c01463          	bne	zero,t3,5f8 <fail>
 2b4:	01c01663          	bne	zero,t3,2c0 <test_7>
 2b8:	fe20fee3          	bleu	sp,ra,2b4 <test_6+0x24>
 2bc:	33c01e63          	bne	zero,t3,5f8 <fail>

00000000000002c0 <test_7>:
 2c0:	00700e13          	li	t3,7
 2c4:	0010009b          	addiw	ra,zero,1
 2c8:	02009093          	slli	ra,ra,0x20
 2cc:	fff08093          	addi	ra,ra,-1
 2d0:	00000113          	li	sp,0
 2d4:	0020f663          	bleu	sp,ra,2e0 <test_7+0x20>
 2d8:	33c01063          	bne	zero,t3,5f8 <fail>
 2dc:	01c01663          	bne	zero,t3,2e8 <test_8>
 2e0:	fe20fee3          	bleu	sp,ra,2dc <test_7+0x1c>
 2e4:	31c01a63          	bne	zero,t3,5f8 <fail>

00000000000002e8 <test_8>:
 2e8:	00800e13          	li	t3,8
 2ec:	00000093          	li	ra,0
 2f0:	00100113          	li	sp,1
 2f4:	0020f463          	bleu	sp,ra,2fc <test_8+0x14>
 2f8:	01c01463          	bne	zero,t3,300 <test_8+0x18>
 2fc:	2fc01e63          	bne	zero,t3,5f8 <fail>
 300:	fe20fee3          	bleu	sp,ra,2fc <test_8+0x14>

0000000000000304 <test_9>:
 304:	00900e13          	li	t3,9
 308:	0010009b          	addiw	ra,zero,1
 30c:	02009093          	slli	ra,ra,0x20
 310:	ffe08093          	addi	ra,ra,-2
 314:	0010011b          	addiw	sp,zero,1
 318:	02011113          	slli	sp,sp,0x20
 31c:	fff10113          	addi	sp,sp,-1
 320:	0020f463          	bleu	sp,ra,328 <test_9+0x24>
 324:	01c01463          	bne	zero,t3,32c <test_9+0x28>
 328:	2dc01863          	bne	zero,t3,5f8 <fail>
 32c:	fe20fee3          	bleu	sp,ra,328 <test_9+0x24>

0000000000000330 <test_10>:
 330:	00a00e13          	li	t3,10
 334:	00000093          	li	ra,0
 338:	0010011b          	addiw	sp,zero,1
 33c:	02011113          	slli	sp,sp,0x20
 340:	fff10113          	addi	sp,sp,-1
 344:	0020f463          	bleu	sp,ra,34c <test_10+0x1c>
 348:	01c01463          	bne	zero,t3,350 <test_10+0x20>
 34c:	2bc01663          	bne	zero,t3,5f8 <fail>
 350:	fe20fee3          	bleu	sp,ra,34c <test_10+0x1c>

0000000000000354 <test_11>:
 354:	00b00e13          	li	t3,11
 358:	800000b7          	lui	ra,0x80000
 35c:	fff0809b          	addiw	ra,ra,-1
 360:	0010011b          	addiw	sp,zero,1
 364:	01f11113          	slli	sp,sp,0x1f
 368:	0020f463          	bleu	sp,ra,370 <test_11+0x1c>
 36c:	01c01463          	bne	zero,t3,374 <test_11+0x20>
 370:	29c01463          	bne	zero,t3,5f8 <fail>
 374:	fe20fee3          	bleu	sp,ra,370 <test_11+0x1c>

0000000000000378 <test_12>:
 378:	00c00e13          	li	t3,12
 37c:	00000213          	li	tp,0
 380:	00f0009b          	addiw	ra,zero,15
 384:	01c09093          	slli	ra,ra,0x1c
 388:	fff08093          	addi	ra,ra,-1 # ffffffff7fffffff <begin_signature+0xffffffff7fffefff>
 38c:	00f0011b          	addiw	sp,zero,15
 390:	01c11113          	slli	sp,sp,0x1c
 394:	2620f263          	bleu	sp,ra,5f8 <fail>
 398:	00120213          	addi	tp,tp,1 # 1 <tvec_user-0xff>
 39c:	00200293          	li	t0,2
 3a0:	fe5210e3          	bne	tp,t0,380 <test_12+0x8>

00000000000003a4 <test_13>:
 3a4:	00d00e13          	li	t3,13
 3a8:	00000213          	li	tp,0
 3ac:	00f0009b          	addiw	ra,zero,15
 3b0:	01c09093          	slli	ra,ra,0x1c
 3b4:	fff08093          	addi	ra,ra,-1
 3b8:	00f0011b          	addiw	sp,zero,15
 3bc:	01c11113          	slli	sp,sp,0x1c
 3c0:	00000013          	nop
 3c4:	2220fa63          	bleu	sp,ra,5f8 <fail>
 3c8:	00120213          	addi	tp,tp,1 # 1 <tvec_user-0xff>
 3cc:	00200293          	li	t0,2
 3d0:	fc521ee3          	bne	tp,t0,3ac <test_13+0x8>

00000000000003d4 <test_14>:
 3d4:	00e00e13          	li	t3,14
 3d8:	00000213          	li	tp,0
 3dc:	00f0009b          	addiw	ra,zero,15
 3e0:	01c09093          	slli	ra,ra,0x1c
 3e4:	fff08093          	addi	ra,ra,-1
 3e8:	00f0011b          	addiw	sp,zero,15
 3ec:	01c11113          	slli	sp,sp,0x1c
 3f0:	00000013          	nop
 3f4:	00000013          	nop
 3f8:	2020f063          	bleu	sp,ra,5f8 <fail>
 3fc:	00120213          	addi	tp,tp,1 # 1 <tvec_user-0xff>
 400:	00200293          	li	t0,2
 404:	fc521ce3          	bne	tp,t0,3dc <test_14+0x8>

0000000000000408 <test_15>:
 408:	00f00e13          	li	t3,15
 40c:	00000213          	li	tp,0
 410:	00f0009b          	addiw	ra,zero,15
 414:	01c09093          	slli	ra,ra,0x1c
 418:	fff08093          	addi	ra,ra,-1
 41c:	00000013          	nop
 420:	00f0011b          	addiw	sp,zero,15
 424:	01c11113          	slli	sp,sp,0x1c
 428:	1c20f863          	bleu	sp,ra,5f8 <fail>
 42c:	00120213          	addi	tp,tp,1 # 1 <tvec_user-0xff>
 430:	00200293          	li	t0,2
 434:	fc521ee3          	bne	tp,t0,410 <test_15+0x8>

0000000000000438 <test_16>:
 438:	01000e13          	li	t3,16
 43c:	00000213          	li	tp,0
 440:	00f0009b          	addiw	ra,zero,15
 444:	01c09093          	slli	ra,ra,0x1c
 448:	fff08093          	addi	ra,ra,-1
 44c:	00000013          	nop
 450:	00f0011b          	addiw	sp,zero,15
 454:	01c11113          	slli	sp,sp,0x1c
 458:	00000013          	nop
 45c:	1820fe63          	bleu	sp,ra,5f8 <fail>
 460:	00120213          	addi	tp,tp,1 # 1 <tvec_user-0xff>
 464:	00200293          	li	t0,2
 468:	fc521ce3          	bne	tp,t0,440 <test_16+0x8>

000000000000046c <test_17>:
 46c:	01100e13          	li	t3,17
 470:	00000213          	li	tp,0
 474:	00f0009b          	addiw	ra,zero,15
 478:	01c09093          	slli	ra,ra,0x1c
 47c:	fff08093          	addi	ra,ra,-1
 480:	00000013          	nop
 484:	00000013          	nop
 488:	00f0011b          	addiw	sp,zero,15
 48c:	01c11113          	slli	sp,sp,0x1c
 490:	1620f463          	bleu	sp,ra,5f8 <fail>
 494:	00120213          	addi	tp,tp,1 # 1 <tvec_user-0xff>
 498:	00200293          	li	t0,2
 49c:	fc521ce3          	bne	tp,t0,474 <test_17+0x8>

00000000000004a0 <test_18>:
 4a0:	01200e13          	li	t3,18
 4a4:	00000213          	li	tp,0
 4a8:	00f0009b          	addiw	ra,zero,15
 4ac:	01c09093          	slli	ra,ra,0x1c
 4b0:	fff08093          	addi	ra,ra,-1
 4b4:	00f0011b          	addiw	sp,zero,15
 4b8:	01c11113          	slli	sp,sp,0x1c
 4bc:	1220fe63          	bleu	sp,ra,5f8 <fail>
 4c0:	00120213          	addi	tp,tp,1 # 1 <tvec_user-0xff>
 4c4:	00200293          	li	t0,2
 4c8:	fe5210e3          	bne	tp,t0,4a8 <test_18+0x8>

00000000000004cc <test_19>:
 4cc:	01300e13          	li	t3,19
 4d0:	00000213          	li	tp,0
 4d4:	00f0009b          	addiw	ra,zero,15
 4d8:	01c09093          	slli	ra,ra,0x1c
 4dc:	fff08093          	addi	ra,ra,-1
 4e0:	00f0011b          	addiw	sp,zero,15
 4e4:	01c11113          	slli	sp,sp,0x1c
 4e8:	00000013          	nop
 4ec:	1020f663          	bleu	sp,ra,5f8 <fail>
 4f0:	00120213          	addi	tp,tp,1 # 1 <tvec_user-0xff>
 4f4:	00200293          	li	t0,2
 4f8:	fc521ee3          	bne	tp,t0,4d4 <test_19+0x8>

00000000000004fc <test_20>:
 4fc:	01400e13          	li	t3,20
 500:	00000213          	li	tp,0
 504:	00f0009b          	addiw	ra,zero,15
 508:	01c09093          	slli	ra,ra,0x1c
 50c:	fff08093          	addi	ra,ra,-1
 510:	00f0011b          	addiw	sp,zero,15
 514:	01c11113          	slli	sp,sp,0x1c
 518:	00000013          	nop
 51c:	00000013          	nop
 520:	0c20fc63          	bleu	sp,ra,5f8 <fail>
 524:	00120213          	addi	tp,tp,1 # 1 <tvec_user-0xff>
 528:	00200293          	li	t0,2
 52c:	fc521ce3          	bne	tp,t0,504 <test_20+0x8>

0000000000000530 <test_21>:
 530:	01500e13          	li	t3,21
 534:	00000213          	li	tp,0
 538:	00f0009b          	addiw	ra,zero,15
 53c:	01c09093          	slli	ra,ra,0x1c
 540:	fff08093          	addi	ra,ra,-1
 544:	00000013          	nop
 548:	00f0011b          	addiw	sp,zero,15
 54c:	01c11113          	slli	sp,sp,0x1c
 550:	0a20f463          	bleu	sp,ra,5f8 <fail>
 554:	00120213          	addi	tp,tp,1 # 1 <tvec_user-0xff>
 558:	00200293          	li	t0,2
 55c:	fc521ee3          	bne	tp,t0,538 <test_21+0x8>

0000000000000560 <test_22>:
 560:	01600e13          	li	t3,22
 564:	00000213          	li	tp,0
 568:	00f0009b          	addiw	ra,zero,15
 56c:	01c09093          	slli	ra,ra,0x1c
 570:	fff08093          	addi	ra,ra,-1
 574:	00000013          	nop
 578:	00f0011b          	addiw	sp,zero,15
 57c:	01c11113          	slli	sp,sp,0x1c
 580:	00000013          	nop
 584:	0620fa63          	bleu	sp,ra,5f8 <fail>
 588:	00120213          	addi	tp,tp,1 # 1 <tvec_user-0xff>
 58c:	00200293          	li	t0,2
 590:	fc521ce3          	bne	tp,t0,568 <test_22+0x8>

0000000000000594 <test_23>:
 594:	01700e13          	li	t3,23
 598:	00000213          	li	tp,0
 59c:	00f0009b          	addiw	ra,zero,15
 5a0:	01c09093          	slli	ra,ra,0x1c
 5a4:	fff08093          	addi	ra,ra,-1
 5a8:	00000013          	nop
 5ac:	00000013          	nop
 5b0:	00f0011b          	addiw	sp,zero,15
 5b4:	01c11113          	slli	sp,sp,0x1c
 5b8:	0420f063          	bleu	sp,ra,5f8 <fail>
 5bc:	00120213          	addi	tp,tp,1 # 1 <tvec_user-0xff>
 5c0:	00200293          	li	t0,2
 5c4:	fc521ce3          	bne	tp,t0,59c <test_23+0x8>

00000000000005c8 <test_24>:
 5c8:	00100093          	li	ra,1
 5cc:	0000fa63          	bleu	zero,ra,5e0 <test_24+0x18>
 5d0:	00108093          	addi	ra,ra,1
 5d4:	00108093          	addi	ra,ra,1
 5d8:	00108093          	addi	ra,ra,1
 5dc:	00108093          	addi	ra,ra,1
 5e0:	00108093          	addi	ra,ra,1
 5e4:	00108093          	addi	ra,ra,1
 5e8:	00300e93          	li	t4,3
 5ec:	01800e13          	li	t3,24
 5f0:	01d09463          	bne	ra,t4,5f8 <fail>
 5f4:	01c01c63          	bne	zero,t3,60c <pass>

00000000000005f8 <fail>:
 5f8:	0ff0000f          	fence
 5fc:	000e0063          	beqz	t3,5fc <fail+0x4>
 600:	001e1e13          	slli	t3,t3,0x1
 604:	001e6e13          	ori	t3,t3,1
 608:	780e1073          	csrw	mtohost,t3

000000000000060c <pass>:
 60c:	0ff0000f          	fence
 610:	00100e13          	li	t3,1
 614:	780e1073          	csrw	mtohost,t3

0000000000000618 <ecall>:
 618:	00000073          	ecall
 61c:	ffdff06f          	j	618 <ecall>
