
rv64ui-p-jal:     file format elf64-littleriscv


Disassembly of section .text:

0000000000000100 <tvec_user>:
 100:	00000013          	nop
 104:	00000013          	nop
 108:	00000013          	nop
 10c:	00000013          	nop
 110:	00000013          	nop
 114:	00000013          	nop
 118:	00000013          	nop
 11c:	00000013          	nop
 120:	00000013          	nop
 124:	00000013          	nop
 128:	00000013          	nop
 12c:	00000013          	nop
 130:	00000013          	nop
 134:	00000013          	nop
 138:	00000013          	nop
 13c:	00000013          	nop

0000000000000140 <tvec_supervisor>:
 140:	00000013          	nop
 144:	00000013          	nop
 148:	00000013          	nop
 14c:	00000013          	nop
 150:	00000013          	nop
 154:	00000013          	nop
 158:	00000013          	nop
 15c:	00000013          	nop
 160:	00000013          	nop
 164:	00000013          	nop
 168:	00000013          	nop
 16c:	00000013          	nop
 170:	00000013          	nop
 174:	00000013          	nop
 178:	00000013          	nop
 17c:	00000013          	nop

0000000000000180 <tvec_hypervisor>:
 180:	00000013          	nop
 184:	00000013          	nop
 188:	00000013          	nop
 18c:	00000013          	nop
 190:	00000013          	nop
 194:	00000013          	nop
 198:	00000013          	nop
 19c:	00000013          	nop
 1a0:	00000013          	nop
 1a4:	00000013          	nop
 1a8:	00000013          	nop
 1ac:	00000013          	nop
 1b0:	00000013          	nop
 1b4:	00000013          	nop
 1b8:	00000013          	nop
 1bc:	00000013          	nop

00000000000001c0 <tvec_machine>:
 1c0:	00000013          	nop
 1c4:	00000013          	nop
 1c8:	00000013          	nop
 1cc:	00000013          	nop
 1d0:	00000013          	nop
 1d4:	00000013          	nop
 1d8:	00000013          	nop
 1dc:	00000013          	nop
 1e0:	00000013          	nop
 1e4:	00000013          	nop
 1e8:	00000013          	nop
 1ec:	00000013          	nop
 1f0:	00000013          	nop
 1f4:	00000013          	nop
 1f8:	00000013          	nop
 1fc:	00000013          	nop

0000000000000200 <_start>:
 200:	00200e13          	li	t3,2
 204:	00000093          	li	ra,0

0000000000000208 <linkaddr_2>:
 208:	010000ef          	jal	218 <target_2>
 20c:	00000013          	nop
 210:	00000013          	nop
 214:	0440006f          	j	258 <fail>

0000000000000218 <target_2>:
 218:	00000117          	auipc	sp,0x0
 21c:	ff010113          	addi	sp,sp,-16 # 208 <linkaddr_2>
 220:	00410113          	addi	sp,sp,4
 224:	02111a63          	bne	sp,ra,258 <fail>

0000000000000228 <test_3>:
 228:	00100113          	li	sp,1
 22c:	014000ef          	jal	240 <test_3+0x18>
 230:	00110113          	addi	sp,sp,1
 234:	00110113          	addi	sp,sp,1
 238:	00110113          	addi	sp,sp,1
 23c:	00110113          	addi	sp,sp,1
 240:	00110113          	addi	sp,sp,1
 244:	00110113          	addi	sp,sp,1
 248:	00300e93          	li	t4,3
 24c:	00300e13          	li	t3,3
 250:	01d11463          	bne	sp,t4,258 <fail>
 254:	01c01c63          	bne	zero,t3,26c <pass>

0000000000000258 <fail>:
 258:	0ff0000f          	fence
 25c:	000e0063          	beqz	t3,25c <fail+0x4>
 260:	001e1e13          	slli	t3,t3,0x1
 264:	001e6e13          	ori	t3,t3,1
 268:	780e1073          	csrw	mtohost,t3

000000000000026c <pass>:
 26c:	0ff0000f          	fence
 270:	00100e13          	li	t3,1
 274:	780e1073          	csrw	mtohost,t3

0000000000000278 <ecall>:
 278:	00000073          	ecall
 27c:	ffdff06f          	j	278 <ecall>
