
rv64ui-p-addi:     file format elf64-littleriscv


Disassembly of section .text:

0000000000000100 <tvec_user>:
 100:	00000013          	nop
 104:	00000013          	nop
 108:	00000013          	nop
 10c:	00000013          	nop
 110:	00000013          	nop
 114:	00000013          	nop
 118:	00000013          	nop
 11c:	00000013          	nop
 120:	00000013          	nop
 124:	00000013          	nop
 128:	00000013          	nop
 12c:	00000013          	nop
 130:	00000013          	nop
 134:	00000013          	nop
 138:	00000013          	nop
 13c:	00000013          	nop

0000000000000140 <tvec_supervisor>:
 140:	00000013          	nop
 144:	00000013          	nop
 148:	00000013          	nop
 14c:	00000013          	nop
 150:	00000013          	nop
 154:	00000013          	nop
 158:	00000013          	nop
 15c:	00000013          	nop
 160:	00000013          	nop
 164:	00000013          	nop
 168:	00000013          	nop
 16c:	00000013          	nop
 170:	00000013          	nop
 174:	00000013          	nop
 178:	00000013          	nop
 17c:	00000013          	nop

0000000000000180 <tvec_hypervisor>:
 180:	00000013          	nop
 184:	00000013          	nop
 188:	00000013          	nop
 18c:	00000013          	nop
 190:	00000013          	nop
 194:	00000013          	nop
 198:	00000013          	nop
 19c:	00000013          	nop
 1a0:	00000013          	nop
 1a4:	00000013          	nop
 1a8:	00000013          	nop
 1ac:	00000013          	nop
 1b0:	00000013          	nop
 1b4:	00000013          	nop
 1b8:	00000013          	nop
 1bc:	00000013          	nop

00000000000001c0 <tvec_machine>:
 1c0:	00000013          	nop
 1c4:	00000013          	nop
 1c8:	00000013          	nop
 1cc:	00000013          	nop
 1d0:	00000013          	nop
 1d4:	00000013          	nop
 1d8:	00000013          	nop
 1dc:	00000013          	nop
 1e0:	00000013          	nop
 1e4:	00000013          	nop
 1e8:	00000013          	nop
 1ec:	00000013          	nop
 1f0:	00000013          	nop
 1f4:	00000013          	nop
 1f8:	00000013          	nop
 1fc:	00000013          	nop

0000000000000200 <_start>:
 200:	00000093          	li	ra,0
 204:	00008193          	mv	gp,ra
 208:	00000e93          	li	t4,0
 20c:	00200e13          	li	t3,2
 210:	29d19263          	bne	gp,t4,494 <fail>

0000000000000214 <test_3>:
 214:	00100093          	li	ra,1
 218:	00108193          	addi	gp,ra,1
 21c:	00200e93          	li	t4,2
 220:	00300e13          	li	t3,3
 224:	27d19863          	bne	gp,t4,494 <fail>

0000000000000228 <test_4>:
 228:	00300093          	li	ra,3
 22c:	00708193          	addi	gp,ra,7
 230:	00a00e93          	li	t4,10
 234:	00400e13          	li	t3,4
 238:	25d19e63          	bne	gp,t4,494 <fail>

000000000000023c <test_5>:
 23c:	00000093          	li	ra,0
 240:	80008193          	addi	gp,ra,-2048
 244:	80000e93          	li	t4,-2048
 248:	00500e13          	li	t3,5
 24c:	25d19463          	bne	gp,t4,494 <fail>

0000000000000250 <test_6>:
 250:	800000b7          	lui	ra,0x80000
 254:	00008193          	mv	gp,ra
 258:	80000eb7          	lui	t4,0x80000
 25c:	00600e13          	li	t3,6
 260:	23d19a63          	bne	gp,t4,494 <fail>

0000000000000264 <test_7>:
 264:	800000b7          	lui	ra,0x80000
 268:	80008193          	addi	gp,ra,-2048 # ffffffff7ffff800 <begin_signature+0xffffffff7fffe800>
 26c:	fff00e9b          	addiw	t4,zero,-1
 270:	01fe9e93          	slli	t4,t4,0x1f
 274:	800e8e93          	addi	t4,t4,-2048 # ffffffff7ffff800 <begin_signature+0xffffffff7fffe800>
 278:	00700e13          	li	t3,7
 27c:	21d19c63          	bne	gp,t4,494 <fail>

0000000000000280 <test_8>:
 280:	00000093          	li	ra,0
 284:	7ff08193          	addi	gp,ra,2047
 288:	7ff00e93          	li	t4,2047
 28c:	00800e13          	li	t3,8
 290:	21d19263          	bne	gp,t4,494 <fail>

0000000000000294 <test_9>:
 294:	800000b7          	lui	ra,0x80000
 298:	fff0809b          	addiw	ra,ra,-1
 29c:	00008193          	mv	gp,ra
 2a0:	80000eb7          	lui	t4,0x80000
 2a4:	fffe8e9b          	addiw	t4,t4,-1
 2a8:	00900e13          	li	t3,9
 2ac:	1fd19463          	bne	gp,t4,494 <fail>

00000000000002b0 <test_10>:
 2b0:	800000b7          	lui	ra,0x80000
 2b4:	fff0809b          	addiw	ra,ra,-1
 2b8:	7ff08193          	addi	gp,ra,2047 # ffffffff800007ff <begin_signature+0xffffffff7ffff7ff>
 2bc:	00100e9b          	addiw	t4,zero,1
 2c0:	01fe9e93          	slli	t4,t4,0x1f
 2c4:	7fee8e93          	addi	t4,t4,2046 # ffffffff800007fe <begin_signature+0xffffffff7ffff7fe>
 2c8:	00a00e13          	li	t3,10
 2cc:	1dd19463          	bne	gp,t4,494 <fail>

00000000000002d0 <test_11>:
 2d0:	800000b7          	lui	ra,0x80000
 2d4:	7ff08193          	addi	gp,ra,2047 # ffffffff800007ff <begin_signature+0xffffffff7ffff7ff>
 2d8:	80000eb7          	lui	t4,0x80000
 2dc:	7ffe8e9b          	addiw	t4,t4,2047
 2e0:	00b00e13          	li	t3,11
 2e4:	1bd19863          	bne	gp,t4,494 <fail>

00000000000002e8 <test_12>:
 2e8:	800000b7          	lui	ra,0x80000
 2ec:	fff0809b          	addiw	ra,ra,-1
 2f0:	80008193          	addi	gp,ra,-2048 # ffffffff7ffff800 <begin_signature+0xffffffff7fffe800>
 2f4:	7ffffeb7          	lui	t4,0x7ffff
 2f8:	7ffe8e9b          	addiw	t4,t4,2047
 2fc:	00c00e13          	li	t3,12
 300:	19d19a63          	bne	gp,t4,494 <fail>

0000000000000304 <test_13>:
 304:	00000093          	li	ra,0
 308:	fff08193          	addi	gp,ra,-1
 30c:	fff00e93          	li	t4,-1
 310:	00d00e13          	li	t3,13
 314:	19d19063          	bne	gp,t4,494 <fail>

0000000000000318 <test_14>:
 318:	fff00093          	li	ra,-1
 31c:	00108193          	addi	gp,ra,1
 320:	00000e93          	li	t4,0
 324:	00e00e13          	li	t3,14
 328:	17d19663          	bne	gp,t4,494 <fail>

000000000000032c <test_15>:
 32c:	fff00093          	li	ra,-1
 330:	fff08193          	addi	gp,ra,-1
 334:	ffe00e93          	li	t4,-2
 338:	00f00e13          	li	t3,15
 33c:	15d19c63          	bne	gp,t4,494 <fail>

0000000000000340 <test_16>:
 340:	800000b7          	lui	ra,0x80000
 344:	fff0809b          	addiw	ra,ra,-1
 348:	00108193          	addi	gp,ra,1 # ffffffff80000001 <begin_signature+0xffffffff7ffff001>
 34c:	00100e9b          	addiw	t4,zero,1
 350:	01fe9e93          	slli	t4,t4,0x1f
 354:	01000e13          	li	t3,16
 358:	13d19e63          	bne	gp,t4,494 <fail>

000000000000035c <test_17>:
 35c:	00d00093          	li	ra,13
 360:	00b08093          	addi	ra,ra,11
 364:	01800e93          	li	t4,24
 368:	01100e13          	li	t3,17
 36c:	13d09463          	bne	ra,t4,494 <fail>

0000000000000370 <test_18>:
 370:	00000213          	li	tp,0
 374:	00d00093          	li	ra,13
 378:	00b08193          	addi	gp,ra,11
 37c:	00018313          	mv	t1,gp
 380:	00120213          	addi	tp,tp,1 # 1 <tvec_user-0xff>
 384:	00200293          	li	t0,2
 388:	fe5216e3          	bne	tp,t0,374 <test_18+0x4>
 38c:	01800e93          	li	t4,24
 390:	01200e13          	li	t3,18
 394:	11d31063          	bne	t1,t4,494 <fail>

0000000000000398 <test_19>:
 398:	00000213          	li	tp,0
 39c:	00d00093          	li	ra,13
 3a0:	00a08193          	addi	gp,ra,10
 3a4:	00000013          	nop
 3a8:	00018313          	mv	t1,gp
 3ac:	00120213          	addi	tp,tp,1 # 1 <tvec_user-0xff>
 3b0:	00200293          	li	t0,2
 3b4:	fe5214e3          	bne	tp,t0,39c <test_19+0x4>
 3b8:	01700e93          	li	t4,23
 3bc:	01300e13          	li	t3,19
 3c0:	0dd31a63          	bne	t1,t4,494 <fail>

00000000000003c4 <test_20>:
 3c4:	00000213          	li	tp,0
 3c8:	00d00093          	li	ra,13
 3cc:	00908193          	addi	gp,ra,9
 3d0:	00000013          	nop
 3d4:	00000013          	nop
 3d8:	00018313          	mv	t1,gp
 3dc:	00120213          	addi	tp,tp,1 # 1 <tvec_user-0xff>
 3e0:	00200293          	li	t0,2
 3e4:	fe5212e3          	bne	tp,t0,3c8 <test_20+0x4>
 3e8:	01600e93          	li	t4,22
 3ec:	01400e13          	li	t3,20
 3f0:	0bd31263          	bne	t1,t4,494 <fail>

00000000000003f4 <test_21>:
 3f4:	00000213          	li	tp,0
 3f8:	00d00093          	li	ra,13
 3fc:	00b08193          	addi	gp,ra,11
 400:	00120213          	addi	tp,tp,1 # 1 <tvec_user-0xff>
 404:	00200293          	li	t0,2
 408:	fe5218e3          	bne	tp,t0,3f8 <test_21+0x4>
 40c:	01800e93          	li	t4,24
 410:	01500e13          	li	t3,21
 414:	09d19063          	bne	gp,t4,494 <fail>

0000000000000418 <test_22>:
 418:	00000213          	li	tp,0
 41c:	00d00093          	li	ra,13
 420:	00000013          	nop
 424:	00a08193          	addi	gp,ra,10
 428:	00120213          	addi	tp,tp,1 # 1 <tvec_user-0xff>
 42c:	00200293          	li	t0,2
 430:	fe5216e3          	bne	tp,t0,41c <test_22+0x4>
 434:	01700e93          	li	t4,23
 438:	01600e13          	li	t3,22
 43c:	05d19c63          	bne	gp,t4,494 <fail>

0000000000000440 <test_23>:
 440:	00000213          	li	tp,0
 444:	00d00093          	li	ra,13
 448:	00000013          	nop
 44c:	00000013          	nop
 450:	00908193          	addi	gp,ra,9
 454:	00120213          	addi	tp,tp,1 # 1 <tvec_user-0xff>
 458:	00200293          	li	t0,2
 45c:	fe5214e3          	bne	tp,t0,444 <test_23+0x4>
 460:	01600e93          	li	t4,22
 464:	01700e13          	li	t3,23
 468:	03d19663          	bne	gp,t4,494 <fail>

000000000000046c <test_24>:
 46c:	02000093          	li	ra,32
 470:	02000e93          	li	t4,32
 474:	01800e13          	li	t3,24
 478:	01d09e63          	bne	ra,t4,494 <fail>

000000000000047c <test_25>:
 47c:	02100093          	li	ra,33
 480:	03208013          	addi	zero,ra,50
 484:	00000e93          	li	t4,0
 488:	01900e13          	li	t3,25
 48c:	01d01463          	bne	zero,t4,494 <fail>
 490:	01c01c63          	bne	zero,t3,4a8 <pass>

0000000000000494 <fail>:
 494:	0ff0000f          	fence
 498:	000e0063          	beqz	t3,498 <fail+0x4>
 49c:	001e1e13          	slli	t3,t3,0x1
 4a0:	001e6e13          	ori	t3,t3,1
 4a4:	780e1073          	csrw	mtohost,t3

00000000000004a8 <pass>:
 4a8:	0ff0000f          	fence
 4ac:	00100e13          	li	t3,1
 4b0:	780e1073          	csrw	mtohost,t3

00000000000004b4 <ecall>:
 4b4:	00000073          	ecall
 4b8:	ffdff06f          	j	4b4 <ecall>
