
rv64ui-p-mulhsu:     file format elf64-littleriscv


Disassembly of section .text:

0000000000000100 <tvec_user>:
 100:	00000013          	nop
 104:	00000013          	nop
 108:	00000013          	nop
 10c:	00000013          	nop
 110:	00000013          	nop
 114:	00000013          	nop
 118:	00000013          	nop
 11c:	00000013          	nop
 120:	00000013          	nop
 124:	00000013          	nop
 128:	00000013          	nop
 12c:	00000013          	nop
 130:	00000013          	nop
 134:	00000013          	nop
 138:	00000013          	nop
 13c:	00000013          	nop

0000000000000140 <tvec_supervisor>:
 140:	00000013          	nop
 144:	00000013          	nop
 148:	00000013          	nop
 14c:	00000013          	nop
 150:	00000013          	nop
 154:	00000013          	nop
 158:	00000013          	nop
 15c:	00000013          	nop
 160:	00000013          	nop
 164:	00000013          	nop
 168:	00000013          	nop
 16c:	00000013          	nop
 170:	00000013          	nop
 174:	00000013          	nop
 178:	00000013          	nop
 17c:	00000013          	nop

0000000000000180 <tvec_hypervisor>:
 180:	00000013          	nop
 184:	00000013          	nop
 188:	00000013          	nop
 18c:	00000013          	nop
 190:	00000013          	nop
 194:	00000013          	nop
 198:	00000013          	nop
 19c:	00000013          	nop
 1a0:	00000013          	nop
 1a4:	00000013          	nop
 1a8:	00000013          	nop
 1ac:	00000013          	nop
 1b0:	00000013          	nop
 1b4:	00000013          	nop
 1b8:	00000013          	nop
 1bc:	00000013          	nop

00000000000001c0 <tvec_machine>:
 1c0:	00000013          	nop
 1c4:	00000013          	nop
 1c8:	00000013          	nop
 1cc:	00000013          	nop
 1d0:	00000013          	nop
 1d4:	00000013          	nop
 1d8:	00000013          	nop
 1dc:	00000013          	nop
 1e0:	00000013          	nop
 1e4:	00000013          	nop
 1e8:	00000013          	nop
 1ec:	00000013          	nop
 1f0:	00000013          	nop
 1f4:	00000013          	nop
 1f8:	00000013          	nop
 1fc:	00000013          	nop

0000000000000200 <_start>:
 200:	00000093          	li	ra,0
 204:	00000113          	li	sp,0
 208:	0220a1b3          	mulhsu	gp,ra,sp
 20c:	00000e93          	li	t4,0
 210:	00200e13          	li	t3,2
 214:	47d19063          	bne	gp,t4,674 <fail>

0000000000000218 <test_3>:
 218:	00100093          	li	ra,1
 21c:	00100113          	li	sp,1
 220:	0220a1b3          	mulhsu	gp,ra,sp
 224:	00000e93          	li	t4,0
 228:	00300e13          	li	t3,3
 22c:	45d19463          	bne	gp,t4,674 <fail>

0000000000000230 <test_4>:
 230:	00300093          	li	ra,3
 234:	00700113          	li	sp,7
 238:	0220a1b3          	mulhsu	gp,ra,sp
 23c:	00000e93          	li	t4,0
 240:	00400e13          	li	t3,4
 244:	43d19863          	bne	gp,t4,674 <fail>

0000000000000248 <test_5>:
 248:	00000093          	li	ra,0
 24c:	ffff8137          	lui	sp,0xffff8
 250:	0220a1b3          	mulhsu	gp,ra,sp
 254:	00000e93          	li	t4,0
 258:	00500e13          	li	t3,5
 25c:	41d19c63          	bne	gp,t4,674 <fail>

0000000000000260 <test_6>:
 260:	800000b7          	lui	ra,0x80000
 264:	00000113          	li	sp,0
 268:	0220a1b3          	mulhsu	gp,ra,sp
 26c:	00000e93          	li	t4,0
 270:	00600e13          	li	t3,6
 274:	41d19063          	bne	gp,t4,674 <fail>

0000000000000278 <test_7>:
 278:	800000b7          	lui	ra,0x80000
 27c:	ffff8137          	lui	sp,0xffff8
 280:	0220a1b3          	mulhsu	gp,ra,sp
 284:	80000eb7          	lui	t4,0x80000
 288:	00700e13          	li	t3,7
 28c:	3fd19463          	bne	gp,t4,674 <fail>

0000000000000290 <test_8>:
 290:	00d0009b          	addiw	ra,zero,13
 294:	02009093          	slli	ra,ra,0x20
 298:	00b0011b          	addiw	sp,zero,11
 29c:	02011113          	slli	sp,sp,0x20
 2a0:	0220a0b3          	mulhsu	ra,ra,sp
 2a4:	08f00e93          	li	t4,143
 2a8:	00800e13          	li	t3,8
 2ac:	3dd09463          	bne	ra,t4,674 <fail>

00000000000002b0 <test_9>:
 2b0:	0070009b          	addiw	ra,zero,7
 2b4:	02109093          	slli	ra,ra,0x21
 2b8:	00b0011b          	addiw	sp,zero,11
 2bc:	02011113          	slli	sp,sp,0x20
 2c0:	0220a133          	mulhsu	sp,ra,sp
 2c4:	09a00e93          	li	t4,154
 2c8:	00900e13          	li	t3,9
 2cc:	3bd11463          	bne	sp,t4,674 <fail>

00000000000002d0 <test_10>:
 2d0:	00d0009b          	addiw	ra,zero,13
 2d4:	02009093          	slli	ra,ra,0x20
 2d8:	0210a0b3          	mulhsu	ra,ra,ra
 2dc:	0a900e93          	li	t4,169
 2e0:	00a00e13          	li	t3,10
 2e4:	39d09863          	bne	ra,t4,674 <fail>

00000000000002e8 <test_11>:
 2e8:	00000213          	li	tp,0
 2ec:	00d0009b          	addiw	ra,zero,13
 2f0:	02009093          	slli	ra,ra,0x20
 2f4:	00b0011b          	addiw	sp,zero,11
 2f8:	02011113          	slli	sp,sp,0x20
 2fc:	0220a1b3          	mulhsu	gp,ra,sp
 300:	00018313          	mv	t1,gp
 304:	00120213          	addi	tp,tp,1 # 1 <tvec_user-0xff>
 308:	00200293          	li	t0,2
 30c:	fe5210e3          	bne	tp,t0,2ec <test_11+0x4>
 310:	08f00e93          	li	t4,143
 314:	00b00e13          	li	t3,11
 318:	35d31e63          	bne	t1,t4,674 <fail>

000000000000031c <test_12>:
 31c:	00000213          	li	tp,0
 320:	0070009b          	addiw	ra,zero,7
 324:	02109093          	slli	ra,ra,0x21
 328:	00b0011b          	addiw	sp,zero,11
 32c:	02011113          	slli	sp,sp,0x20
 330:	0220a1b3          	mulhsu	gp,ra,sp
 334:	00000013          	nop
 338:	00018313          	mv	t1,gp
 33c:	00120213          	addi	tp,tp,1 # 1 <tvec_user-0xff>
 340:	00200293          	li	t0,2
 344:	fc521ee3          	bne	tp,t0,320 <test_12+0x4>
 348:	09a00e93          	li	t4,154
 34c:	00c00e13          	li	t3,12
 350:	33d31263          	bne	t1,t4,674 <fail>

0000000000000354 <test_13>:
 354:	00000213          	li	tp,0
 358:	00f0009b          	addiw	ra,zero,15
 35c:	02009093          	slli	ra,ra,0x20
 360:	00b0011b          	addiw	sp,zero,11
 364:	02011113          	slli	sp,sp,0x20
 368:	0220a1b3          	mulhsu	gp,ra,sp
 36c:	00000013          	nop
 370:	00000013          	nop
 374:	00018313          	mv	t1,gp
 378:	00120213          	addi	tp,tp,1 # 1 <tvec_user-0xff>
 37c:	00200293          	li	t0,2
 380:	fc521ce3          	bne	tp,t0,358 <test_13+0x4>
 384:	0a500e93          	li	t4,165
 388:	00d00e13          	li	t3,13
 38c:	2fd31463          	bne	t1,t4,674 <fail>

0000000000000390 <test_14>:
 390:	00000213          	li	tp,0
 394:	00d0009b          	addiw	ra,zero,13
 398:	02009093          	slli	ra,ra,0x20
 39c:	00b0011b          	addiw	sp,zero,11
 3a0:	02011113          	slli	sp,sp,0x20
 3a4:	0220a1b3          	mulhsu	gp,ra,sp
 3a8:	00120213          	addi	tp,tp,1 # 1 <tvec_user-0xff>
 3ac:	00200293          	li	t0,2
 3b0:	fe5212e3          	bne	tp,t0,394 <test_14+0x4>
 3b4:	08f00e93          	li	t4,143
 3b8:	00e00e13          	li	t3,14
 3bc:	2bd19c63          	bne	gp,t4,674 <fail>

00000000000003c0 <test_15>:
 3c0:	00000213          	li	tp,0
 3c4:	0070009b          	addiw	ra,zero,7
 3c8:	02109093          	slli	ra,ra,0x21
 3cc:	00b0011b          	addiw	sp,zero,11
 3d0:	02011113          	slli	sp,sp,0x20
 3d4:	00000013          	nop
 3d8:	0220a1b3          	mulhsu	gp,ra,sp
 3dc:	00120213          	addi	tp,tp,1 # 1 <tvec_user-0xff>
 3e0:	00200293          	li	t0,2
 3e4:	fe5210e3          	bne	tp,t0,3c4 <test_15+0x4>
 3e8:	09a00e93          	li	t4,154
 3ec:	00f00e13          	li	t3,15
 3f0:	29d19263          	bne	gp,t4,674 <fail>

00000000000003f4 <test_16>:
 3f4:	00000213          	li	tp,0
 3f8:	00f0009b          	addiw	ra,zero,15
 3fc:	02009093          	slli	ra,ra,0x20
 400:	00b0011b          	addiw	sp,zero,11
 404:	02011113          	slli	sp,sp,0x20
 408:	00000013          	nop
 40c:	00000013          	nop
 410:	0220a1b3          	mulhsu	gp,ra,sp
 414:	00120213          	addi	tp,tp,1 # 1 <tvec_user-0xff>
 418:	00200293          	li	t0,2
 41c:	fc521ee3          	bne	tp,t0,3f8 <test_16+0x4>
 420:	0a500e93          	li	t4,165
 424:	01000e13          	li	t3,16
 428:	25d19663          	bne	gp,t4,674 <fail>

000000000000042c <test_17>:
 42c:	00000213          	li	tp,0
 430:	00d0009b          	addiw	ra,zero,13
 434:	02009093          	slli	ra,ra,0x20
 438:	00000013          	nop
 43c:	00b0011b          	addiw	sp,zero,11
 440:	02011113          	slli	sp,sp,0x20
 444:	0220a1b3          	mulhsu	gp,ra,sp
 448:	00120213          	addi	tp,tp,1 # 1 <tvec_user-0xff>
 44c:	00200293          	li	t0,2
 450:	fe5210e3          	bne	tp,t0,430 <test_17+0x4>
 454:	08f00e93          	li	t4,143
 458:	01100e13          	li	t3,17
 45c:	21d19c63          	bne	gp,t4,674 <fail>

0000000000000460 <test_18>:
 460:	00000213          	li	tp,0
 464:	0070009b          	addiw	ra,zero,7
 468:	02109093          	slli	ra,ra,0x21
 46c:	00000013          	nop
 470:	00b0011b          	addiw	sp,zero,11
 474:	02011113          	slli	sp,sp,0x20
 478:	00000013          	nop
 47c:	0220a1b3          	mulhsu	gp,ra,sp
 480:	00120213          	addi	tp,tp,1 # 1 <tvec_user-0xff>
 484:	00200293          	li	t0,2
 488:	fc521ee3          	bne	tp,t0,464 <test_18+0x4>
 48c:	09a00e93          	li	t4,154
 490:	01200e13          	li	t3,18
 494:	1fd19063          	bne	gp,t4,674 <fail>

0000000000000498 <test_19>:
 498:	00000213          	li	tp,0
 49c:	00f0009b          	addiw	ra,zero,15
 4a0:	02009093          	slli	ra,ra,0x20
 4a4:	00000013          	nop
 4a8:	00000013          	nop
 4ac:	00b0011b          	addiw	sp,zero,11
 4b0:	02011113          	slli	sp,sp,0x20
 4b4:	0220a1b3          	mulhsu	gp,ra,sp
 4b8:	00120213          	addi	tp,tp,1 # 1 <tvec_user-0xff>
 4bc:	00200293          	li	t0,2
 4c0:	fc521ee3          	bne	tp,t0,49c <test_19+0x4>
 4c4:	0a500e93          	li	t4,165
 4c8:	01300e13          	li	t3,19
 4cc:	1bd19463          	bne	gp,t4,674 <fail>

00000000000004d0 <test_20>:
 4d0:	00000213          	li	tp,0
 4d4:	00b0011b          	addiw	sp,zero,11
 4d8:	02011113          	slli	sp,sp,0x20
 4dc:	00d0009b          	addiw	ra,zero,13
 4e0:	02009093          	slli	ra,ra,0x20
 4e4:	0220a1b3          	mulhsu	gp,ra,sp
 4e8:	00120213          	addi	tp,tp,1 # 1 <tvec_user-0xff>
 4ec:	00200293          	li	t0,2
 4f0:	fe5212e3          	bne	tp,t0,4d4 <test_20+0x4>
 4f4:	08f00e93          	li	t4,143
 4f8:	01400e13          	li	t3,20
 4fc:	17d19c63          	bne	gp,t4,674 <fail>

0000000000000500 <test_21>:
 500:	00000213          	li	tp,0
 504:	00b0011b          	addiw	sp,zero,11
 508:	02011113          	slli	sp,sp,0x20
 50c:	0070009b          	addiw	ra,zero,7
 510:	02109093          	slli	ra,ra,0x21
 514:	00000013          	nop
 518:	0220a1b3          	mulhsu	gp,ra,sp
 51c:	00120213          	addi	tp,tp,1 # 1 <tvec_user-0xff>
 520:	00200293          	li	t0,2
 524:	fe5210e3          	bne	tp,t0,504 <test_21+0x4>
 528:	09a00e93          	li	t4,154
 52c:	01500e13          	li	t3,21
 530:	15d19263          	bne	gp,t4,674 <fail>

0000000000000534 <test_22>:
 534:	00000213          	li	tp,0
 538:	00b0011b          	addiw	sp,zero,11
 53c:	02011113          	slli	sp,sp,0x20
 540:	00f0009b          	addiw	ra,zero,15
 544:	02009093          	slli	ra,ra,0x20
 548:	00000013          	nop
 54c:	00000013          	nop
 550:	0220a1b3          	mulhsu	gp,ra,sp
 554:	00120213          	addi	tp,tp,1 # 1 <tvec_user-0xff>
 558:	00200293          	li	t0,2
 55c:	fc521ee3          	bne	tp,t0,538 <test_22+0x4>
 560:	0a500e93          	li	t4,165
 564:	01600e13          	li	t3,22
 568:	11d19663          	bne	gp,t4,674 <fail>

000000000000056c <test_23>:
 56c:	00000213          	li	tp,0
 570:	00b0011b          	addiw	sp,zero,11
 574:	02011113          	slli	sp,sp,0x20
 578:	00000013          	nop
 57c:	00d0009b          	addiw	ra,zero,13
 580:	02009093          	slli	ra,ra,0x20
 584:	0220a1b3          	mulhsu	gp,ra,sp
 588:	00120213          	addi	tp,tp,1 # 1 <tvec_user-0xff>
 58c:	00200293          	li	t0,2
 590:	fe5210e3          	bne	tp,t0,570 <test_23+0x4>
 594:	08f00e93          	li	t4,143
 598:	01700e13          	li	t3,23
 59c:	0dd19c63          	bne	gp,t4,674 <fail>

00000000000005a0 <test_24>:
 5a0:	00000213          	li	tp,0
 5a4:	00b0011b          	addiw	sp,zero,11
 5a8:	02011113          	slli	sp,sp,0x20
 5ac:	00000013          	nop
 5b0:	0070009b          	addiw	ra,zero,7
 5b4:	02109093          	slli	ra,ra,0x21
 5b8:	00000013          	nop
 5bc:	0220a1b3          	mulhsu	gp,ra,sp
 5c0:	00120213          	addi	tp,tp,1 # 1 <tvec_user-0xff>
 5c4:	00200293          	li	t0,2
 5c8:	fc521ee3          	bne	tp,t0,5a4 <test_24+0x4>
 5cc:	09a00e93          	li	t4,154
 5d0:	01800e13          	li	t3,24
 5d4:	0bd19063          	bne	gp,t4,674 <fail>

00000000000005d8 <test_25>:
 5d8:	00000213          	li	tp,0
 5dc:	00b0011b          	addiw	sp,zero,11
 5e0:	02011113          	slli	sp,sp,0x20
 5e4:	00000013          	nop
 5e8:	00000013          	nop
 5ec:	00f0009b          	addiw	ra,zero,15
 5f0:	02009093          	slli	ra,ra,0x20
 5f4:	0220a1b3          	mulhsu	gp,ra,sp
 5f8:	00120213          	addi	tp,tp,1 # 1 <tvec_user-0xff>
 5fc:	00200293          	li	t0,2
 600:	fc521ee3          	bne	tp,t0,5dc <test_25+0x4>
 604:	0a500e93          	li	t4,165
 608:	01900e13          	li	t3,25
 60c:	07d19463          	bne	gp,t4,674 <fail>

0000000000000610 <test_26>:
 610:	01f0009b          	addiw	ra,zero,31
 614:	02009093          	slli	ra,ra,0x20
 618:	02102133          	mulhsu	sp,zero,ra
 61c:	00000e93          	li	t4,0
 620:	01a00e13          	li	t3,26
 624:	05d11863          	bne	sp,t4,674 <fail>

0000000000000628 <test_27>:
 628:	0010009b          	addiw	ra,zero,1
 62c:	02509093          	slli	ra,ra,0x25
 630:	0200a133          	mulhsu	sp,ra,zero
 634:	00000e93          	li	t4,0
 638:	01b00e13          	li	t3,27
 63c:	03d11c63          	bne	sp,t4,674 <fail>

0000000000000640 <test_28>:
 640:	020020b3          	mulhsu	ra,zero,zero
 644:	00000e93          	li	t4,0
 648:	01c00e13          	li	t3,28
 64c:	03d09463          	bne	ra,t4,674 <fail>

0000000000000650 <test_29>:
 650:	0210009b          	addiw	ra,zero,33
 654:	02009093          	slli	ra,ra,0x20
 658:	0110011b          	addiw	sp,zero,17
 65c:	02111113          	slli	sp,sp,0x21
 660:	0220a033          	mulhsu	zero,ra,sp
 664:	00000e93          	li	t4,0
 668:	01d00e13          	li	t3,29
 66c:	01d01463          	bne	zero,t4,674 <fail>
 670:	01c01c63          	bne	zero,t3,688 <pass>

0000000000000674 <fail>:
 674:	0ff0000f          	fence
 678:	000e0063          	beqz	t3,678 <fail+0x4>
 67c:	001e1e13          	slli	t3,t3,0x1
 680:	001e6e13          	ori	t3,t3,1
 684:	780e1073          	csrw	mtohost,t3

0000000000000688 <pass>:
 688:	0ff0000f          	fence
 68c:	00100e13          	li	t3,1
 690:	780e1073          	csrw	mtohost,t3

0000000000000694 <ecall>:
 694:	00000073          	ecall
 698:	ffdff06f          	j	694 <ecall>
