
rv64ui-p-sraw:     file format elf64-littleriscv


Disassembly of section .text:

0000000000000100 <tvec_user>:
 100:	00000013          	nop
 104:	00000013          	nop
 108:	00000013          	nop
 10c:	00000013          	nop
 110:	00000013          	nop
 114:	00000013          	nop
 118:	00000013          	nop
 11c:	00000013          	nop
 120:	00000013          	nop
 124:	00000013          	nop
 128:	00000013          	nop
 12c:	00000013          	nop
 130:	00000013          	nop
 134:	00000013          	nop
 138:	00000013          	nop
 13c:	00000013          	nop

0000000000000140 <tvec_supervisor>:
 140:	00000013          	nop
 144:	00000013          	nop
 148:	00000013          	nop
 14c:	00000013          	nop
 150:	00000013          	nop
 154:	00000013          	nop
 158:	00000013          	nop
 15c:	00000013          	nop
 160:	00000013          	nop
 164:	00000013          	nop
 168:	00000013          	nop
 16c:	00000013          	nop
 170:	00000013          	nop
 174:	00000013          	nop
 178:	00000013          	nop
 17c:	00000013          	nop

0000000000000180 <tvec_hypervisor>:
 180:	00000013          	nop
 184:	00000013          	nop
 188:	00000013          	nop
 18c:	00000013          	nop
 190:	00000013          	nop
 194:	00000013          	nop
 198:	00000013          	nop
 19c:	00000013          	nop
 1a0:	00000013          	nop
 1a4:	00000013          	nop
 1a8:	00000013          	nop
 1ac:	00000013          	nop
 1b0:	00000013          	nop
 1b4:	00000013          	nop
 1b8:	00000013          	nop
 1bc:	00000013          	nop

00000000000001c0 <tvec_machine>:
 1c0:	00000013          	nop
 1c4:	00000013          	nop
 1c8:	00000013          	nop
 1cc:	00000013          	nop
 1d0:	00000013          	nop
 1d4:	00000013          	nop
 1d8:	00000013          	nop
 1dc:	00000013          	nop
 1e0:	00000013          	nop
 1e4:	00000013          	nop
 1e8:	00000013          	nop
 1ec:	00000013          	nop
 1f0:	00000013          	nop
 1f4:	00000013          	nop
 1f8:	00000013          	nop
 1fc:	00000013          	nop

0000000000000200 <_start>:
 200:	800000b7          	lui	ra,0x80000
 204:	00000113          	li	sp,0
 208:	4020d1bb          	sraw	gp,ra,sp
 20c:	80000eb7          	lui	t4,0x80000
 210:	00200e13          	li	t3,2
 214:	59d19463          	bne	gp,t4,79c <fail>

0000000000000218 <test_3>:
 218:	800000b7          	lui	ra,0x80000
 21c:	00100113          	li	sp,1
 220:	4020d1bb          	sraw	gp,ra,sp
 224:	c0000eb7          	lui	t4,0xc0000
 228:	00300e13          	li	t3,3
 22c:	57d19863          	bne	gp,t4,79c <fail>

0000000000000230 <test_4>:
 230:	800000b7          	lui	ra,0x80000
 234:	00700113          	li	sp,7
 238:	4020d1bb          	sraw	gp,ra,sp
 23c:	ff000eb7          	lui	t4,0xff000
 240:	00400e13          	li	t3,4
 244:	55d19c63          	bne	gp,t4,79c <fail>

0000000000000248 <test_5>:
 248:	800000b7          	lui	ra,0x80000
 24c:	00e00113          	li	sp,14
 250:	4020d1bb          	sraw	gp,ra,sp
 254:	fffe0eb7          	lui	t4,0xfffe0
 258:	00500e13          	li	t3,5
 25c:	55d19063          	bne	gp,t4,79c <fail>

0000000000000260 <test_6>:
 260:	800000b7          	lui	ra,0x80000
 264:	0010809b          	addiw	ra,ra,1
 268:	01f00113          	li	sp,31
 26c:	4020d1bb          	sraw	gp,ra,sp
 270:	fff00e93          	li	t4,-1
 274:	00600e13          	li	t3,6
 278:	53d19263          	bne	gp,t4,79c <fail>

000000000000027c <test_7>:
 27c:	800000b7          	lui	ra,0x80000
 280:	fff0809b          	addiw	ra,ra,-1
 284:	00000113          	li	sp,0
 288:	4020d1bb          	sraw	gp,ra,sp
 28c:	80000eb7          	lui	t4,0x80000
 290:	fffe8e9b          	addiw	t4,t4,-1
 294:	00700e13          	li	t3,7
 298:	51d19263          	bne	gp,t4,79c <fail>

000000000000029c <test_8>:
 29c:	800000b7          	lui	ra,0x80000
 2a0:	fff0809b          	addiw	ra,ra,-1
 2a4:	00100113          	li	sp,1
 2a8:	4020d1bb          	sraw	gp,ra,sp
 2ac:	40000eb7          	lui	t4,0x40000
 2b0:	fffe8e9b          	addiw	t4,t4,-1
 2b4:	00800e13          	li	t3,8
 2b8:	4fd19263          	bne	gp,t4,79c <fail>

00000000000002bc <test_9>:
 2bc:	800000b7          	lui	ra,0x80000
 2c0:	fff0809b          	addiw	ra,ra,-1
 2c4:	00700113          	li	sp,7
 2c8:	4020d1bb          	sraw	gp,ra,sp
 2cc:	01000eb7          	lui	t4,0x1000
 2d0:	fffe8e9b          	addiw	t4,t4,-1
 2d4:	00900e13          	li	t3,9
 2d8:	4dd19263          	bne	gp,t4,79c <fail>

00000000000002dc <test_10>:
 2dc:	800000b7          	lui	ra,0x80000
 2e0:	fff0809b          	addiw	ra,ra,-1
 2e4:	00e00113          	li	sp,14
 2e8:	4020d1bb          	sraw	gp,ra,sp
 2ec:	00020eb7          	lui	t4,0x20
 2f0:	fffe8e9b          	addiw	t4,t4,-1
 2f4:	00a00e13          	li	t3,10
 2f8:	4bd19263          	bne	gp,t4,79c <fail>

00000000000002fc <test_11>:
 2fc:	800000b7          	lui	ra,0x80000
 300:	fff0809b          	addiw	ra,ra,-1
 304:	01f00113          	li	sp,31
 308:	4020d1bb          	sraw	gp,ra,sp
 30c:	00000e93          	li	t4,0
 310:	00b00e13          	li	t3,11
 314:	49d19463          	bne	gp,t4,79c <fail>

0000000000000318 <test_12>:
 318:	818180b7          	lui	ra,0x81818
 31c:	1810809b          	addiw	ra,ra,385
 320:	00000113          	li	sp,0
 324:	4020d1bb          	sraw	gp,ra,sp
 328:	81818eb7          	lui	t4,0x81818
 32c:	181e8e9b          	addiw	t4,t4,385
 330:	00c00e13          	li	t3,12
 334:	47d19463          	bne	gp,t4,79c <fail>

0000000000000338 <test_13>:
 338:	818180b7          	lui	ra,0x81818
 33c:	1810809b          	addiw	ra,ra,385
 340:	00100113          	li	sp,1
 344:	4020d1bb          	sraw	gp,ra,sp
 348:	c0c0ceb7          	lui	t4,0xc0c0c
 34c:	0c0e8e9b          	addiw	t4,t4,192
 350:	00d00e13          	li	t3,13
 354:	45d19463          	bne	gp,t4,79c <fail>

0000000000000358 <test_14>:
 358:	818180b7          	lui	ra,0x81818
 35c:	1810809b          	addiw	ra,ra,385
 360:	00700113          	li	sp,7
 364:	4020d1bb          	sraw	gp,ra,sp
 368:	ff030eb7          	lui	t4,0xff030
 36c:	303e8e9b          	addiw	t4,t4,771
 370:	00e00e13          	li	t3,14
 374:	43d19463          	bne	gp,t4,79c <fail>

0000000000000378 <test_15>:
 378:	818180b7          	lui	ra,0x81818
 37c:	1810809b          	addiw	ra,ra,385
 380:	00e00113          	li	sp,14
 384:	4020d1bb          	sraw	gp,ra,sp
 388:	fffe0eb7          	lui	t4,0xfffe0
 38c:	606e8e9b          	addiw	t4,t4,1542
 390:	00f00e13          	li	t3,15
 394:	41d19463          	bne	gp,t4,79c <fail>

0000000000000398 <test_16>:
 398:	818180b7          	lui	ra,0x81818
 39c:	1810809b          	addiw	ra,ra,385
 3a0:	01f00113          	li	sp,31
 3a4:	4020d1bb          	sraw	gp,ra,sp
 3a8:	fff00e93          	li	t4,-1
 3ac:	01000e13          	li	t3,16
 3b0:	3fd19663          	bne	gp,t4,79c <fail>

00000000000003b4 <test_17>:
 3b4:	818180b7          	lui	ra,0x81818
 3b8:	1810809b          	addiw	ra,ra,385
 3bc:	fe000113          	li	sp,-32
 3c0:	4020d1bb          	sraw	gp,ra,sp
 3c4:	81818eb7          	lui	t4,0x81818
 3c8:	181e8e9b          	addiw	t4,t4,385
 3cc:	01100e13          	li	t3,17
 3d0:	3dd19663          	bne	gp,t4,79c <fail>

00000000000003d4 <test_18>:
 3d4:	818180b7          	lui	ra,0x81818
 3d8:	1810809b          	addiw	ra,ra,385
 3dc:	fe100113          	li	sp,-31
 3e0:	4020d1bb          	sraw	gp,ra,sp
 3e4:	c0c0ceb7          	lui	t4,0xc0c0c
 3e8:	0c0e8e9b          	addiw	t4,t4,192
 3ec:	01200e13          	li	t3,18
 3f0:	3bd19663          	bne	gp,t4,79c <fail>

00000000000003f4 <test_19>:
 3f4:	818180b7          	lui	ra,0x81818
 3f8:	1810809b          	addiw	ra,ra,385
 3fc:	fe700113          	li	sp,-25
 400:	4020d1bb          	sraw	gp,ra,sp
 404:	ff030eb7          	lui	t4,0xff030
 408:	303e8e9b          	addiw	t4,t4,771
 40c:	01300e13          	li	t3,19
 410:	39d19663          	bne	gp,t4,79c <fail>

0000000000000414 <test_20>:
 414:	818180b7          	lui	ra,0x81818
 418:	1810809b          	addiw	ra,ra,385
 41c:	fee00113          	li	sp,-18
 420:	4020d1bb          	sraw	gp,ra,sp
 424:	fffe0eb7          	lui	t4,0xfffe0
 428:	606e8e9b          	addiw	t4,t4,1542
 42c:	01400e13          	li	t3,20
 430:	37d19663          	bne	gp,t4,79c <fail>

0000000000000434 <test_21>:
 434:	818180b7          	lui	ra,0x81818
 438:	1810809b          	addiw	ra,ra,385
 43c:	fff00113          	li	sp,-1
 440:	4020d1bb          	sraw	gp,ra,sp
 444:	fff00e93          	li	t4,-1
 448:	01500e13          	li	t3,21
 44c:	35d19863          	bne	gp,t4,79c <fail>

0000000000000450 <test_22>:
 450:	800000b7          	lui	ra,0x80000
 454:	00700113          	li	sp,7
 458:	4020d0bb          	sraw	ra,ra,sp
 45c:	ff000eb7          	lui	t4,0xff000
 460:	01600e13          	li	t3,22
 464:	33d09c63          	bne	ra,t4,79c <fail>

0000000000000468 <test_23>:
 468:	800000b7          	lui	ra,0x80000
 46c:	00e00113          	li	sp,14
 470:	4020d13b          	sraw	sp,ra,sp
 474:	fffe0eb7          	lui	t4,0xfffe0
 478:	01700e13          	li	t3,23
 47c:	33d11063          	bne	sp,t4,79c <fail>

0000000000000480 <test_24>:
 480:	00700093          	li	ra,7
 484:	4010d0bb          	sraw	ra,ra,ra
 488:	00000e93          	li	t4,0
 48c:	01800e13          	li	t3,24
 490:	31d09663          	bne	ra,t4,79c <fail>

0000000000000494 <test_25>:
 494:	00000213          	li	tp,0
 498:	800000b7          	lui	ra,0x80000
 49c:	00700113          	li	sp,7
 4a0:	4020d1bb          	sraw	gp,ra,sp
 4a4:	00018313          	mv	t1,gp
 4a8:	00120213          	addi	tp,tp,1 # 1 <tvec_user-0xff>
 4ac:	00200293          	li	t0,2
 4b0:	fe5214e3          	bne	tp,t0,498 <test_25+0x4>
 4b4:	ff000eb7          	lui	t4,0xff000
 4b8:	01900e13          	li	t3,25
 4bc:	2fd31063          	bne	t1,t4,79c <fail>

00000000000004c0 <test_26>:
 4c0:	00000213          	li	tp,0
 4c4:	800000b7          	lui	ra,0x80000
 4c8:	00e00113          	li	sp,14
 4cc:	4020d1bb          	sraw	gp,ra,sp
 4d0:	00000013          	nop
 4d4:	00018313          	mv	t1,gp
 4d8:	00120213          	addi	tp,tp,1 # 1 <tvec_user-0xff>
 4dc:	00200293          	li	t0,2
 4e0:	fe5212e3          	bne	tp,t0,4c4 <test_26+0x4>
 4e4:	fffe0eb7          	lui	t4,0xfffe0
 4e8:	01a00e13          	li	t3,26
 4ec:	2bd31863          	bne	t1,t4,79c <fail>

00000000000004f0 <test_27>:
 4f0:	00000213          	li	tp,0
 4f4:	800000b7          	lui	ra,0x80000
 4f8:	01f00113          	li	sp,31
 4fc:	4020d1bb          	sraw	gp,ra,sp
 500:	00000013          	nop
 504:	00000013          	nop
 508:	00018313          	mv	t1,gp
 50c:	00120213          	addi	tp,tp,1 # 1 <tvec_user-0xff>
 510:	00200293          	li	t0,2
 514:	fe5210e3          	bne	tp,t0,4f4 <test_27+0x4>
 518:	fff00e93          	li	t4,-1
 51c:	01b00e13          	li	t3,27
 520:	27d31e63          	bne	t1,t4,79c <fail>

0000000000000524 <test_28>:
 524:	00000213          	li	tp,0
 528:	800000b7          	lui	ra,0x80000
 52c:	00700113          	li	sp,7
 530:	4020d1bb          	sraw	gp,ra,sp
 534:	00120213          	addi	tp,tp,1 # 1 <tvec_user-0xff>
 538:	00200293          	li	t0,2
 53c:	fe5216e3          	bne	tp,t0,528 <test_28+0x4>
 540:	ff000eb7          	lui	t4,0xff000
 544:	01c00e13          	li	t3,28
 548:	25d19a63          	bne	gp,t4,79c <fail>

000000000000054c <test_29>:
 54c:	00000213          	li	tp,0
 550:	800000b7          	lui	ra,0x80000
 554:	00e00113          	li	sp,14
 558:	00000013          	nop
 55c:	4020d1bb          	sraw	gp,ra,sp
 560:	00120213          	addi	tp,tp,1 # 1 <tvec_user-0xff>
 564:	00200293          	li	t0,2
 568:	fe5214e3          	bne	tp,t0,550 <test_29+0x4>
 56c:	fffe0eb7          	lui	t4,0xfffe0
 570:	01d00e13          	li	t3,29
 574:	23d19463          	bne	gp,t4,79c <fail>

0000000000000578 <test_30>:
 578:	00000213          	li	tp,0
 57c:	800000b7          	lui	ra,0x80000
 580:	01f00113          	li	sp,31
 584:	00000013          	nop
 588:	00000013          	nop
 58c:	4020d1bb          	sraw	gp,ra,sp
 590:	00120213          	addi	tp,tp,1 # 1 <tvec_user-0xff>
 594:	00200293          	li	t0,2
 598:	fe5212e3          	bne	tp,t0,57c <test_30+0x4>
 59c:	fff00e93          	li	t4,-1
 5a0:	01e00e13          	li	t3,30
 5a4:	1fd19c63          	bne	gp,t4,79c <fail>

00000000000005a8 <test_31>:
 5a8:	00000213          	li	tp,0
 5ac:	800000b7          	lui	ra,0x80000
 5b0:	00000013          	nop
 5b4:	00700113          	li	sp,7
 5b8:	4020d1bb          	sraw	gp,ra,sp
 5bc:	00120213          	addi	tp,tp,1 # 1 <tvec_user-0xff>
 5c0:	00200293          	li	t0,2
 5c4:	fe5214e3          	bne	tp,t0,5ac <test_31+0x4>
 5c8:	ff000eb7          	lui	t4,0xff000
 5cc:	01f00e13          	li	t3,31
 5d0:	1dd19663          	bne	gp,t4,79c <fail>

00000000000005d4 <test_32>:
 5d4:	00000213          	li	tp,0
 5d8:	800000b7          	lui	ra,0x80000
 5dc:	00000013          	nop
 5e0:	00e00113          	li	sp,14
 5e4:	00000013          	nop
 5e8:	4020d1bb          	sraw	gp,ra,sp
 5ec:	00120213          	addi	tp,tp,1 # 1 <tvec_user-0xff>
 5f0:	00200293          	li	t0,2
 5f4:	fe5212e3          	bne	tp,t0,5d8 <test_32+0x4>
 5f8:	fffe0eb7          	lui	t4,0xfffe0
 5fc:	02000e13          	li	t3,32
 600:	19d19e63          	bne	gp,t4,79c <fail>

0000000000000604 <test_33>:
 604:	00000213          	li	tp,0
 608:	800000b7          	lui	ra,0x80000
 60c:	00000013          	nop
 610:	00000013          	nop
 614:	01f00113          	li	sp,31
 618:	4020d1bb          	sraw	gp,ra,sp
 61c:	00120213          	addi	tp,tp,1 # 1 <tvec_user-0xff>
 620:	00200293          	li	t0,2
 624:	fe5212e3          	bne	tp,t0,608 <test_33+0x4>
 628:	fff00e93          	li	t4,-1
 62c:	02100e13          	li	t3,33
 630:	17d19663          	bne	gp,t4,79c <fail>

0000000000000634 <test_34>:
 634:	00000213          	li	tp,0
 638:	00700113          	li	sp,7
 63c:	800000b7          	lui	ra,0x80000
 640:	4020d1bb          	sraw	gp,ra,sp
 644:	00120213          	addi	tp,tp,1 # 1 <tvec_user-0xff>
 648:	00200293          	li	t0,2
 64c:	fe5216e3          	bne	tp,t0,638 <test_34+0x4>
 650:	ff000eb7          	lui	t4,0xff000
 654:	02200e13          	li	t3,34
 658:	15d19263          	bne	gp,t4,79c <fail>

000000000000065c <test_35>:
 65c:	00000213          	li	tp,0
 660:	00e00113          	li	sp,14
 664:	800000b7          	lui	ra,0x80000
 668:	00000013          	nop
 66c:	4020d1bb          	sraw	gp,ra,sp
 670:	00120213          	addi	tp,tp,1 # 1 <tvec_user-0xff>
 674:	00200293          	li	t0,2
 678:	fe5214e3          	bne	tp,t0,660 <test_35+0x4>
 67c:	fffe0eb7          	lui	t4,0xfffe0
 680:	02300e13          	li	t3,35
 684:	11d19c63          	bne	gp,t4,79c <fail>

0000000000000688 <test_36>:
 688:	00000213          	li	tp,0
 68c:	01f00113          	li	sp,31
 690:	800000b7          	lui	ra,0x80000
 694:	00000013          	nop
 698:	00000013          	nop
 69c:	4020d1bb          	sraw	gp,ra,sp
 6a0:	00120213          	addi	tp,tp,1 # 1 <tvec_user-0xff>
 6a4:	00200293          	li	t0,2
 6a8:	fe5212e3          	bne	tp,t0,68c <test_36+0x4>
 6ac:	fff00e93          	li	t4,-1
 6b0:	02400e13          	li	t3,36
 6b4:	0fd19463          	bne	gp,t4,79c <fail>

00000000000006b8 <test_37>:
 6b8:	00000213          	li	tp,0
 6bc:	00700113          	li	sp,7
 6c0:	00000013          	nop
 6c4:	800000b7          	lui	ra,0x80000
 6c8:	4020d1bb          	sraw	gp,ra,sp
 6cc:	00120213          	addi	tp,tp,1 # 1 <tvec_user-0xff>
 6d0:	00200293          	li	t0,2
 6d4:	fe5214e3          	bne	tp,t0,6bc <test_37+0x4>
 6d8:	ff000eb7          	lui	t4,0xff000
 6dc:	02500e13          	li	t3,37
 6e0:	0bd19e63          	bne	gp,t4,79c <fail>

00000000000006e4 <test_38>:
 6e4:	00000213          	li	tp,0
 6e8:	00e00113          	li	sp,14
 6ec:	00000013          	nop
 6f0:	800000b7          	lui	ra,0x80000
 6f4:	00000013          	nop
 6f8:	4020d1bb          	sraw	gp,ra,sp
 6fc:	00120213          	addi	tp,tp,1 # 1 <tvec_user-0xff>
 700:	00200293          	li	t0,2
 704:	fe5212e3          	bne	tp,t0,6e8 <test_38+0x4>
 708:	fffe0eb7          	lui	t4,0xfffe0
 70c:	02600e13          	li	t3,38
 710:	09d19663          	bne	gp,t4,79c <fail>

0000000000000714 <test_39>:
 714:	00000213          	li	tp,0
 718:	01f00113          	li	sp,31
 71c:	00000013          	nop
 720:	00000013          	nop
 724:	800000b7          	lui	ra,0x80000
 728:	4020d1bb          	sraw	gp,ra,sp
 72c:	00120213          	addi	tp,tp,1 # 1 <tvec_user-0xff>
 730:	00200293          	li	t0,2
 734:	fe5212e3          	bne	tp,t0,718 <test_39+0x4>
 738:	fff00e93          	li	t4,-1
 73c:	02700e13          	li	t3,39
 740:	05d19e63          	bne	gp,t4,79c <fail>

0000000000000744 <test_40>:
 744:	00f00093          	li	ra,15
 748:	4010513b          	sraw	sp,zero,ra
 74c:	00000e93          	li	t4,0
 750:	02800e13          	li	t3,40
 754:	05d11463          	bne	sp,t4,79c <fail>

0000000000000758 <test_41>:
 758:	02000093          	li	ra,32
 75c:	4000d13b          	sraw	sp,ra,zero
 760:	02000e93          	li	t4,32
 764:	02900e13          	li	t3,41
 768:	03d11a63          	bne	sp,t4,79c <fail>

000000000000076c <test_42>:
 76c:	400050bb          	sraw	ra,zero,zero
 770:	00000e93          	li	t4,0
 774:	02a00e13          	li	t3,42
 778:	03d09263          	bne	ra,t4,79c <fail>

000000000000077c <test_43>:
 77c:	40000093          	li	ra,1024
 780:	00001137          	lui	sp,0x1
 784:	8001011b          	addiw	sp,sp,-2048
 788:	4020d03b          	sraw	zero,ra,sp
 78c:	00000e93          	li	t4,0
 790:	02b00e13          	li	t3,43
 794:	01d01463          	bne	zero,t4,79c <fail>
 798:	01c01c63          	bne	zero,t3,7b0 <pass>

000000000000079c <fail>:
 79c:	0ff0000f          	fence
 7a0:	000e0063          	beqz	t3,7a0 <fail+0x4>
 7a4:	001e1e13          	slli	t3,t3,0x1
 7a8:	001e6e13          	ori	t3,t3,1
 7ac:	780e1073          	csrw	mtohost,t3

00000000000007b0 <pass>:
 7b0:	0ff0000f          	fence
 7b4:	00100e13          	li	t3,1
 7b8:	780e1073          	csrw	mtohost,t3

00000000000007bc <ecall>:
 7bc:	00000073          	ecall
 7c0:	ffdff06f          	j	7bc <ecall>
