
rv64ui-p-srliw:     file format elf64-littleriscv


Disassembly of section .text:

0000000000000100 <tvec_user>:
 100:	00000013          	nop
 104:	00000013          	nop
 108:	00000013          	nop
 10c:	00000013          	nop
 110:	00000013          	nop
 114:	00000013          	nop
 118:	00000013          	nop
 11c:	00000013          	nop
 120:	00000013          	nop
 124:	00000013          	nop
 128:	00000013          	nop
 12c:	00000013          	nop
 130:	00000013          	nop
 134:	00000013          	nop
 138:	00000013          	nop
 13c:	00000013          	nop

0000000000000140 <tvec_supervisor>:
 140:	00000013          	nop
 144:	00000013          	nop
 148:	00000013          	nop
 14c:	00000013          	nop
 150:	00000013          	nop
 154:	00000013          	nop
 158:	00000013          	nop
 15c:	00000013          	nop
 160:	00000013          	nop
 164:	00000013          	nop
 168:	00000013          	nop
 16c:	00000013          	nop
 170:	00000013          	nop
 174:	00000013          	nop
 178:	00000013          	nop
 17c:	00000013          	nop

0000000000000180 <tvec_hypervisor>:
 180:	00000013          	nop
 184:	00000013          	nop
 188:	00000013          	nop
 18c:	00000013          	nop
 190:	00000013          	nop
 194:	00000013          	nop
 198:	00000013          	nop
 19c:	00000013          	nop
 1a0:	00000013          	nop
 1a4:	00000013          	nop
 1a8:	00000013          	nop
 1ac:	00000013          	nop
 1b0:	00000013          	nop
 1b4:	00000013          	nop
 1b8:	00000013          	nop
 1bc:	00000013          	nop

00000000000001c0 <tvec_machine>:
 1c0:	00000013          	nop
 1c4:	00000013          	nop
 1c8:	00000013          	nop
 1cc:	00000013          	nop
 1d0:	00000013          	nop
 1d4:	00000013          	nop
 1d8:	00000013          	nop
 1dc:	00000013          	nop
 1e0:	00000013          	nop
 1e4:	00000013          	nop
 1e8:	00000013          	nop
 1ec:	00000013          	nop
 1f0:	00000013          	nop
 1f4:	00000013          	nop
 1f8:	00000013          	nop
 1fc:	00000013          	nop

0000000000000200 <_start>:
 200:	800000b7          	lui	ra,0x80000
 204:	0000d19b          	srliw	gp,ra,0x0
 208:	80000eb7          	lui	t4,0x80000
 20c:	00200e13          	li	t3,2
 210:	29d19863          	bne	gp,t4,4a0 <fail>

0000000000000214 <test_3>:
 214:	800000b7          	lui	ra,0x80000
 218:	0010d19b          	srliw	gp,ra,0x1
 21c:	40000eb7          	lui	t4,0x40000
 220:	00300e13          	li	t3,3
 224:	27d19e63          	bne	gp,t4,4a0 <fail>

0000000000000228 <test_4>:
 228:	800000b7          	lui	ra,0x80000
 22c:	0070d19b          	srliw	gp,ra,0x7
 230:	01000eb7          	lui	t4,0x1000
 234:	00400e13          	li	t3,4
 238:	27d19463          	bne	gp,t4,4a0 <fail>

000000000000023c <test_5>:
 23c:	800000b7          	lui	ra,0x80000
 240:	00e0d19b          	srliw	gp,ra,0xe
 244:	00020eb7          	lui	t4,0x20
 248:	00500e13          	li	t3,5
 24c:	25d19a63          	bne	gp,t4,4a0 <fail>

0000000000000250 <test_6>:
 250:	800000b7          	lui	ra,0x80000
 254:	0010809b          	addiw	ra,ra,1
 258:	01f0d19b          	srliw	gp,ra,0x1f
 25c:	00100e93          	li	t4,1
 260:	00600e13          	li	t3,6
 264:	23d19e63          	bne	gp,t4,4a0 <fail>

0000000000000268 <test_7>:
 268:	fff00093          	li	ra,-1
 26c:	0000d19b          	srliw	gp,ra,0x0
 270:	fff00e93          	li	t4,-1
 274:	00700e13          	li	t3,7
 278:	23d19463          	bne	gp,t4,4a0 <fail>

000000000000027c <test_8>:
 27c:	fff00093          	li	ra,-1
 280:	0010d19b          	srliw	gp,ra,0x1
 284:	80000eb7          	lui	t4,0x80000
 288:	fffe8e9b          	addiw	t4,t4,-1
 28c:	00800e13          	li	t3,8
 290:	21d19863          	bne	gp,t4,4a0 <fail>

0000000000000294 <test_9>:
 294:	fff00093          	li	ra,-1
 298:	0070d19b          	srliw	gp,ra,0x7
 29c:	02000eb7          	lui	t4,0x2000
 2a0:	fffe8e9b          	addiw	t4,t4,-1
 2a4:	00900e13          	li	t3,9
 2a8:	1fd19c63          	bne	gp,t4,4a0 <fail>

00000000000002ac <test_10>:
 2ac:	fff00093          	li	ra,-1
 2b0:	00e0d19b          	srliw	gp,ra,0xe
 2b4:	00040eb7          	lui	t4,0x40
 2b8:	fffe8e9b          	addiw	t4,t4,-1
 2bc:	00a00e13          	li	t3,10
 2c0:	1fd19063          	bne	gp,t4,4a0 <fail>

00000000000002c4 <test_11>:
 2c4:	fff00093          	li	ra,-1
 2c8:	01f0d19b          	srliw	gp,ra,0x1f
 2cc:	00100e93          	li	t4,1
 2d0:	00b00e13          	li	t3,11
 2d4:	1dd19663          	bne	gp,t4,4a0 <fail>

00000000000002d8 <test_12>:
 2d8:	212120b7          	lui	ra,0x21212
 2dc:	1210809b          	addiw	ra,ra,289
 2e0:	0000d19b          	srliw	gp,ra,0x0
 2e4:	21212eb7          	lui	t4,0x21212
 2e8:	121e8e9b          	addiw	t4,t4,289
 2ec:	00c00e13          	li	t3,12
 2f0:	1bd19863          	bne	gp,t4,4a0 <fail>

00000000000002f4 <test_13>:
 2f4:	212120b7          	lui	ra,0x21212
 2f8:	1210809b          	addiw	ra,ra,289
 2fc:	0010d19b          	srliw	gp,ra,0x1
 300:	10909eb7          	lui	t4,0x10909
 304:	090e8e9b          	addiw	t4,t4,144
 308:	00d00e13          	li	t3,13
 30c:	19d19a63          	bne	gp,t4,4a0 <fail>

0000000000000310 <test_14>:
 310:	212120b7          	lui	ra,0x21212
 314:	1210809b          	addiw	ra,ra,289
 318:	0070d19b          	srliw	gp,ra,0x7
 31c:	00424eb7          	lui	t4,0x424
 320:	242e8e9b          	addiw	t4,t4,578
 324:	00e00e13          	li	t3,14
 328:	17d19c63          	bne	gp,t4,4a0 <fail>

000000000000032c <test_15>:
 32c:	212120b7          	lui	ra,0x21212
 330:	1210809b          	addiw	ra,ra,289
 334:	00e0d19b          	srliw	gp,ra,0xe
 338:	00008eb7          	lui	t4,0x8
 33c:	484e8e9b          	addiw	t4,t4,1156
 340:	00f00e13          	li	t3,15
 344:	15d19e63          	bne	gp,t4,4a0 <fail>

0000000000000348 <test_16>:
 348:	212120b7          	lui	ra,0x21212
 34c:	1210809b          	addiw	ra,ra,289
 350:	01f0d19b          	srliw	gp,ra,0x1f
 354:	00000e93          	li	t4,0
 358:	01000e13          	li	t3,16
 35c:	15d19263          	bne	gp,t4,4a0 <fail>

0000000000000360 <test_17>:
 360:	800000b7          	lui	ra,0x80000
 364:	0070d09b          	srliw	ra,ra,0x7
 368:	01000eb7          	lui	t4,0x1000
 36c:	01100e13          	li	t3,17
 370:	13d09863          	bne	ra,t4,4a0 <fail>

0000000000000374 <test_18>:
 374:	00000213          	li	tp,0
 378:	800000b7          	lui	ra,0x80000
 37c:	0070d19b          	srliw	gp,ra,0x7
 380:	00018313          	mv	t1,gp
 384:	00120213          	addi	tp,tp,1 # 1 <tvec_user-0xff>
 388:	00200293          	li	t0,2
 38c:	fe5216e3          	bne	tp,t0,378 <test_18+0x4>
 390:	01000eb7          	lui	t4,0x1000
 394:	01200e13          	li	t3,18
 398:	11d31463          	bne	t1,t4,4a0 <fail>

000000000000039c <test_19>:
 39c:	00000213          	li	tp,0
 3a0:	800000b7          	lui	ra,0x80000
 3a4:	00e0d19b          	srliw	gp,ra,0xe
 3a8:	00000013          	nop
 3ac:	00018313          	mv	t1,gp
 3b0:	00120213          	addi	tp,tp,1 # 1 <tvec_user-0xff>
 3b4:	00200293          	li	t0,2
 3b8:	fe5214e3          	bne	tp,t0,3a0 <test_19+0x4>
 3bc:	00020eb7          	lui	t4,0x20
 3c0:	01300e13          	li	t3,19
 3c4:	0dd31e63          	bne	t1,t4,4a0 <fail>

00000000000003c8 <test_20>:
 3c8:	00000213          	li	tp,0
 3cc:	800000b7          	lui	ra,0x80000
 3d0:	0010809b          	addiw	ra,ra,1
 3d4:	01f0d19b          	srliw	gp,ra,0x1f
 3d8:	00000013          	nop
 3dc:	00000013          	nop
 3e0:	00018313          	mv	t1,gp
 3e4:	00120213          	addi	tp,tp,1 # 1 <tvec_user-0xff>
 3e8:	00200293          	li	t0,2
 3ec:	fe5210e3          	bne	tp,t0,3cc <test_20+0x4>
 3f0:	00100e93          	li	t4,1
 3f4:	01400e13          	li	t3,20
 3f8:	0bd31463          	bne	t1,t4,4a0 <fail>

00000000000003fc <test_21>:
 3fc:	00000213          	li	tp,0
 400:	800000b7          	lui	ra,0x80000
 404:	0070d19b          	srliw	gp,ra,0x7
 408:	00120213          	addi	tp,tp,1 # 1 <tvec_user-0xff>
 40c:	00200293          	li	t0,2
 410:	fe5218e3          	bne	tp,t0,400 <test_21+0x4>
 414:	01000eb7          	lui	t4,0x1000
 418:	01500e13          	li	t3,21
 41c:	09d19263          	bne	gp,t4,4a0 <fail>

0000000000000420 <test_22>:
 420:	00000213          	li	tp,0
 424:	800000b7          	lui	ra,0x80000
 428:	00000013          	nop
 42c:	00e0d19b          	srliw	gp,ra,0xe
 430:	00120213          	addi	tp,tp,1 # 1 <tvec_user-0xff>
 434:	00200293          	li	t0,2
 438:	fe5216e3          	bne	tp,t0,424 <test_22+0x4>
 43c:	00020eb7          	lui	t4,0x20
 440:	01600e13          	li	t3,22
 444:	05d19e63          	bne	gp,t4,4a0 <fail>

0000000000000448 <test_23>:
 448:	00000213          	li	tp,0
 44c:	800000b7          	lui	ra,0x80000
 450:	0010809b          	addiw	ra,ra,1
 454:	00000013          	nop
 458:	00000013          	nop
 45c:	01f0d19b          	srliw	gp,ra,0x1f
 460:	00120213          	addi	tp,tp,1 # 1 <tvec_user-0xff>
 464:	00200293          	li	t0,2
 468:	fe5212e3          	bne	tp,t0,44c <test_23+0x4>
 46c:	00100e93          	li	t4,1
 470:	01700e13          	li	t3,23
 474:	03d19663          	bne	gp,t4,4a0 <fail>

0000000000000478 <test_24>:
 478:	01f0509b          	srliw	ra,zero,0x1f
 47c:	00000e93          	li	t4,0
 480:	01800e13          	li	t3,24
 484:	01d09e63          	bne	ra,t4,4a0 <fail>

0000000000000488 <test_25>:
 488:	01f00093          	li	ra,31
 48c:	01c0d01b          	srliw	zero,ra,0x1c
 490:	00000e93          	li	t4,0
 494:	01900e13          	li	t3,25
 498:	01d01463          	bne	zero,t4,4a0 <fail>
 49c:	01c01c63          	bne	zero,t3,4b4 <pass>

00000000000004a0 <fail>:
 4a0:	0ff0000f          	fence
 4a4:	000e0063          	beqz	t3,4a4 <fail+0x4>
 4a8:	001e1e13          	slli	t3,t3,0x1
 4ac:	001e6e13          	ori	t3,t3,1
 4b0:	780e1073          	csrw	mtohost,t3

00000000000004b4 <pass>:
 4b4:	0ff0000f          	fence
 4b8:	00100e13          	li	t3,1
 4bc:	780e1073          	csrw	mtohost,t3

00000000000004c0 <ecall>:
 4c0:	00000073          	ecall
 4c4:	ffdff06f          	j	4c0 <ecall>
